(dp1
S'output'
p2
S"<type 'exceptions.TypeError'> unsupported operand type(s) for +: 'NoneType' and 'NoneType'"
p3
sS'layer'
p4
S'/home/jpr/Source/web2py/applications/Inventory/controllers/qrinv.py'
p5
sS'code'
p6
S'# QR inventory system\n# 06/01/2012\n# Joel Robinson\n\nfrom elaphe import barcode\nfrom gluon.contenttype import contenttype\nif 0:\n    from gluon.globals import *\n    from gluon.html import *\n    from gluon.http import *\n    from gluon.sqlhtml import SQLFORM, SQLTABLE, form_factory\n    session = Session()\n    request = Request()\n    response = Response()\n    from gluon.sql import *\n    from gluon.validators import *\n    from db import * \n\ndef qrgen():\n    "Create QR codes"\n    image = IMG(_src=URL(\'static/images\', \'none.png\'), _alt="none")\n    form = SQLFORM.factory(\n        Field(\'message\', requires=IS_NOT_EMPTY())\n        )\n    if form.accepts(request.vars, session):                        \n        msg=request.vars.message               \n        session.msg=request.vars.message\n        image = IMG(_src=URL(\'qrcode\',vars={\'message\':msg}))\n        return dict(form=form,image=image)\n    else:\n        return dict(form=form,image=image)\n        \ndef qrcode():\n    # take session.msg and return equivilent QR code\n    qrcode=barcode(\'qrcode\', session.msg, options=dict(version=5, eclevel=\'M\'),\n        margin=10, data_mode=\'8-bits\')\n    response.headers[\'Content-Type\']="image/png"\n    qrcode.save(response.body, "PNG")\n    return response.body.getvalue()\n\n@auth.requires_login()    \ndef manage():\n    # manage inventory database\n    table=db.invent\n    form = crud.update(table,request.args(1))\n    #table.id.represent = lambda id, row: \\\n    #   A(\'edit:\',id,_href=URL(args=(request.args(1),id)))\n    table.id.represent = lambda id, row: A(\'edit:\',id,_href=URL(\'confirm_inventory\',vars= {\'ident\':id} ))\n    search, rows = crud.search(table)\n    return dict(form=form,search=search,rows=rows)\n\ndef set_record(form):\n    #helper furnction with enter_inventory\n    #can\'t put session var in enter_inventory or will return error if not set\n    session.record = form.vars.id\n\n@auth.requires_login()\ndef enter_inventory():      \n    form = crud.create(db.invent, next=URL(\'confirm_inventory\'), \\\n        onaccept= lambda form : set_record(form), message=T("record created"))\n    return dict(form=form)\n\n@auth.requires_login()    \ndef confirm_inventory():\n    # shows record just entered in enter_inventory    \n    #record = crud.read(db.invent,request.ident)\n    record = crud.read(db.invent,session.record) \n    # if session.record else "You have to enter a record first"\n    controller= request.env.path_info.strip("confirm_inventory")\n    page = "update_inventory?partnum="\n    location = "http://"+request.env.server_name+controller+page+record.record.partnum\n    session.msg=location    \n    image = IMG(_src=URL(\'qrcode\', vars={\'location\':location}),_id="qrcode")    \n    return dict(record=record,image=image)\n\n@auth.requires_login()\ndef view_inventory():\n    # query for partnum\n    # partnum should be in html request\n    # ex. view_inventory?partnum=LAMP-1\n    row = db(db.invent.partnum == request.get_vars.partnum).select().first()\n    # display queried object\n    record = crud.read(db.invent, row.id)\n    return dict(record=record)\n\ndef qr_request():\n    if (request.vars.partnum == None):\n        if(session.partnum != None):\n            redirect(URL(\'update_inventory\'))\n        else:\n            record = \'No part number URL should read "update_inventory?partnum=something"\'\n            return dict(record=record)\n    else:\n        session.partnum = request.vars.partnum\n        redirect(URL(\'update_inventory\'))\n\n@auth.requires_login()    \ndef update_inventory():\n    db.invent.partnum.writable = False\n    db.invent.manuf.writable = False\n    db.invent.description.writable = False\n    db.invent.whol_price.writable = False\n    db.invent.ret_price.writable = False\n    crud.settings.update_deletable = False \n    if request.get_vars.partnum:\n        row = db(db.invent.partnum == request.get_vars.partnum).select().first()\n        return dict(total = row.total_stock,row=row, record=crud.update(db.invent, row.id) if row\n            else \'Part #%s not found\' % request.get_vars.partnum) \n    else:\n        row = None\n        return dict(row=row, record="No part number. URL should read update_inventory?partnum=12345")\n\nresponse._vars=response._caller(enter_inventory)\n'
p7
sS'snapshot'
p8
(dp9
S'exception'
p10
(dp11
S'__hash__'
p12
S"<method-wrapper '__hash__' of exceptions.TypeError object>"
p13
sS'__setattr__'
p14
S"<method-wrapper '__setattr__' of exceptions.TypeError object>"
p15
sS'__reduce_ex__'
p16
S'<built-in method __reduce_ex__ of exceptions.TypeError object>'
p17
sS'__getslice__'
p18
S"<method-wrapper '__getslice__' of exceptions.TypeError object>"
p19
sS'__getitem__'
p20
S"<method-wrapper '__getitem__' of exceptions.TypeError object>"
p21
sS'__setstate__'
p22
S'<built-in method __setstate__ of exceptions.TypeError object>'
p23
sS'__reduce__'
p24
S'<built-in method __reduce__ of exceptions.TypeError object>'
p25
sS'__str__'
p26
S"<method-wrapper '__str__' of exceptions.TypeError object>"
p27
sS'__format__'
p28
S'<built-in method __format__ of exceptions.TypeError object>'
p29
sS'__getattribute__'
p30
S"<method-wrapper '__getattribute__' of exceptions.TypeError object>"
p31
sS'__class__'
p32
S"<type 'exceptions.TypeError'>"
p33
sS'__unicode__'
p34
S'<built-in method __unicode__ of exceptions.TypeError object>'
p35
sS'__delattr__'
p36
S"<method-wrapper '__delattr__' of exceptions.TypeError object>"
p37
sS'__subclasshook__'
p38
S'<built-in method __subclasshook__ of type object>'
p39
sS'__repr__'
p40
S"<method-wrapper '__repr__' of exceptions.TypeError object>"
p41
sS'args'
p42
S'("unsupported operand type(s) for +: \'NoneType\' and \'NoneType\'",)'
p43
sS'__dict__'
p44
S'{}'
p45
sS'__sizeof__'
p46
S'<built-in method __sizeof__ of exceptions.TypeError object>'
p47
sS'__doc__'
p48
S"'Inappropriate argument type.'"
p49
sS'__init__'
p50
S"<method-wrapper '__init__' of exceptions.TypeError object>"
p51
sS'__new__'
p52
S'<built-in method __new__ of type object>'
p53
ssS'evalue'
p54
S"unsupported operand type(s) for +: 'NoneType' and 'NoneType'"
p55
sS'request'
p56
ccopy_reg
_reconstructor
p57
(cgluon.html
BEAUTIFY
p58
c__builtin__
object
p59
NtRp60
(dp61
S'attributes'
p62
(dp63
sS'components'
p64
(lp65
g57
(cgluon.html
TABLE
p66
g59
NtRp67
(dp68
g62
(dp69
S'level'
p70
I5
ssS'parent'
p71
Nsg64
(lp72
g57
(cgluon.html
TR
p73
g59
NtRp74
(dp75
g62
(dp76
sg71
g67
sg64
(lp77
g57
(cgluon.html
TD
p78
g59
NtRp79
(dp80
g62
(dp81
S'_style'
p82
S'font-weight:bold;vertical-align:top'
p83
ssg71
g74
sg64
(lp84
S'ajax'
p85
asbag57
(g78
g59
NtRp86
(dp87
g62
(dp88
S'_valign'
p89
S'top'
p90
ssg71
g74
sg64
(lp91
S':'
asbag57
(g78
g59
NtRp92
(dp93
g62
(dp94
sg71
g74
sg64
(lp95
g57
(g58
g59
NtRp96
(dp97
g62
(dp98
g70
I5
ssg71
g92
sg64
(lp99
S'False'
p100
asbasbasbag57
(g73
g59
NtRp101
(dp102
g62
(dp103
sg71
g67
sg64
(lp104
g57
(g78
g59
NtRp105
(dp106
g62
(dp107
g82
g83
ssg71
g101
sg64
(lp108
S'application'
p109
asbag57
(g78
g59
NtRp110
(dp111
g62
(dp112
g89
g90
ssg71
g101
sg64
(lp113
S':'
asbag57
(g78
g59
NtRp114
(dp115
g62
(dp116
sg71
g101
sg64
(lp117
g57
(g58
g59
NtRp118
(dp119
g62
(dp120
g70
I5
ssg71
g114
sg64
(lp121
S'Inventory'
p122
asbasbasbag57
(g73
g59
NtRp123
(dp124
g62
(dp125
sg71
g67
sg64
(lp126
g57
(g78
g59
NtRp127
(dp128
g62
(dp129
g82
g83
ssg71
g123
sg64
(lp130
g42
asbag57
(g78
g59
NtRp131
(dp132
g62
(dp133
g89
g90
ssg71
g123
sg64
(lp134
S':'
asbag57
(g78
g59
NtRp135
(dp136
g62
(dp137
sg71
g123
sg64
(lp138
g57
(g58
g59
NtRp139
(dp140
g62
(dp141
g70
I5
ssg71
g135
sg64
(lp142
g57
(g66
g59
NtRp143
(dp144
g62
(dp145
g70
I4
ssg71
Nsg64
(lp146
sbasbasbasbag57
(g73
g59
NtRp147
(dp148
g62
(dp149
sg71
g67
sg64
(lp150
g57
(g78
g59
NtRp151
(dp152
g62
(dp153
g82
g83
ssg71
g147
sg64
(lp154
S'body'
p155
asbag57
(g78
g59
NtRp156
(dp157
g62
(dp158
g89
g90
ssg71
g147
sg64
(lp159
S':'
asbag57
(g78
g59
NtRp160
(dp161
g62
(dp162
sg71
g147
sg64
(lp163
g57
(g58
g59
NtRp164
(dp165
g62
(dp166
g70
I5
ssg71
g160
sg64
(lp167
S"<open file '<fdopen>', mode 'w+b' at 0xb12fee8>"
p168
asbasbasbag57
(g73
g59
NtRp169
(dp170
g62
(dp171
sg71
g67
sg64
(lp172
g57
(g78
g59
NtRp173
(dp174
g62
(dp175
g82
g83
ssg71
g169
sg64
(lp176
S'client'
p177
asbag57
(g78
g59
NtRp178
(dp179
g62
(dp180
g89
g90
ssg71
g169
sg64
(lp181
S':'
asbag57
(g78
g59
NtRp182
(dp183
g62
(dp184
sg71
g169
sg64
(lp185
g57
(g58
g59
NtRp186
(dp187
g62
(dp188
g70
I5
ssg71
g182
sg64
(lp189
S'127.0.0.1'
p190
asbasbasbag57
(g73
g59
NtRp191
(dp192
g62
(dp193
sg71
g67
sg64
(lp194
g57
(g78
g59
NtRp195
(dp196
g62
(dp197
g82
g83
ssg71
g191
sg64
(lp198
S'controller'
p199
asbag57
(g78
g59
NtRp200
(dp201
g62
(dp202
g89
g90
ssg71
g191
sg64
(lp203
S':'
asbag57
(g78
g59
NtRp204
(dp205
g62
(dp206
sg71
g191
sg64
(lp207
g57
(g58
g59
NtRp208
(dp209
g62
(dp210
g70
I5
ssg71
g204
sg64
(lp211
S'qrinv'
p212
asbasbasbag57
(g73
g59
NtRp213
(dp214
g62
(dp215
sg71
g67
sg64
(lp216
g57
(g78
g59
NtRp217
(dp218
g62
(dp219
g82
g83
ssg71
g213
sg64
(lp220
S'cookies'
p221
asbag57
(g78
g59
NtRp222
(dp223
g62
(dp224
g89
g90
ssg71
g213
sg64
(lp225
S':'
asbag57
(g78
g59
NtRp226
(dp227
g62
(dp228
sg71
g213
sg64
(lp229
g57
(g58
g59
NtRp230
(dp231
g62
(dp232
g70
I5
ssg71
g226
sg64
(lp233
g57
(g66
g59
NtRp234
(dp235
g62
(dp236
g70
I4
ssg71
Nsg64
(lp237
g57
(g73
g59
NtRp238
(dp239
g62
(dp240
sg71
g234
sg64
(lp241
g57
(g78
g59
NtRp242
(dp243
g62
(dp244
g82
g83
ssg71
g238
sg64
(lp245
S'session_id_admin'
p246
asbag57
(g78
g59
NtRp247
(dp248
g62
(dp249
g89
g90
ssg71
g238
sg64
(lp250
S':'
asbag57
(g78
g59
NtRp251
(dp252
g62
(dp253
sg71
g238
sg64
(lp254
g57
(g58
g59
NtRp255
(dp256
g62
(dp257
g70
I4
ssg71
g251
sg64
(lp258
g57
(g66
g59
NtRp259
(dp260
g62
(dp261
g70
I3
ssg71
Nsg64
(lp262
g57
(g73
g59
NtRp263
(dp264
g62
(dp265
sg71
g259
sg64
(lp266
g57
(g78
g59
NtRp267
(dp268
g62
(dp269
g82
g83
ssg71
g263
sg64
(lp270
S'comment'
p271
asbag57
(g78
g59
NtRp272
(dp273
g62
(dp274
g89
g90
ssg71
g263
sg64
(lp275
S':'
asbag57
(g78
g59
NtRp276
(dp277
g62
(dp278
sg71
g263
sg64
(lp279
g57
(g58
g59
NtRp280
(dp281
g62
(dp282
g70
I3
ssg71
g276
sg64
(lp283
S''
asbasbasbag57
(g73
g59
NtRp284
(dp285
g62
(dp286
sg71
g259
sg64
(lp287
g57
(g78
g59
NtRp288
(dp289
g62
(dp290
g82
g83
ssg71
g284
sg64
(lp291
S'domain'
p292
asbag57
(g78
g59
NtRp293
(dp294
g62
(dp295
g89
g90
ssg71
g284
sg64
(lp296
S':'
asbag57
(g78
g59
NtRp297
(dp298
g62
(dp299
sg71
g284
sg64
(lp300
g57
(g58
g59
NtRp301
(dp302
g62
(dp303
g70
I3
ssg71
g297
sg64
(lp304
S''
asbasbasbag57
(g73
g59
NtRp305
(dp306
g62
(dp307
sg71
g259
sg64
(lp308
g57
(g78
g59
NtRp309
(dp310
g62
(dp311
g82
g83
ssg71
g305
sg64
(lp312
S'expires'
p313
asbag57
(g78
g59
NtRp314
(dp315
g62
(dp316
g89
g90
ssg71
g305
sg64
(lp317
S':'
asbag57
(g78
g59
NtRp318
(dp319
g62
(dp320
sg71
g305
sg64
(lp321
g57
(g58
g59
NtRp322
(dp323
g62
(dp324
g70
I3
ssg71
g318
sg64
(lp325
S''
asbasbasbag57
(g73
g59
NtRp326
(dp327
g62
(dp328
sg71
g259
sg64
(lp329
g57
(g78
g59
NtRp330
(dp331
g62
(dp332
g82
g83
ssg71
g326
sg64
(lp333
S'httponly'
p334
asbag57
(g78
g59
NtRp335
(dp336
g62
(dp337
g89
g90
ssg71
g326
sg64
(lp338
S':'
asbag57
(g78
g59
NtRp339
(dp340
g62
(dp341
sg71
g326
sg64
(lp342
g57
(g58
g59
NtRp343
(dp344
g62
(dp345
g70
I3
ssg71
g339
sg64
(lp346
S''
asbasbasbag57
(g73
g59
NtRp347
(dp348
g62
(dp349
sg71
g259
sg64
(lp350
g57
(g78
g59
NtRp351
(dp352
g62
(dp353
g82
g83
ssg71
g347
sg64
(lp354
S'max-age'
p355
asbag57
(g78
g59
NtRp356
(dp357
g62
(dp358
g89
g90
ssg71
g347
sg64
(lp359
S':'
asbag57
(g78
g59
NtRp360
(dp361
g62
(dp362
sg71
g347
sg64
(lp363
g57
(g58
g59
NtRp364
(dp365
g62
(dp366
g70
I3
ssg71
g360
sg64
(lp367
S''
asbasbasbag57
(g73
g59
NtRp368
(dp369
g62
(dp370
sg71
g259
sg64
(lp371
g57
(g78
g59
NtRp372
(dp373
g62
(dp374
g82
g83
ssg71
g368
sg64
(lp375
S'path'
p376
asbag57
(g78
g59
NtRp377
(dp378
g62
(dp379
g89
g90
ssg71
g368
sg64
(lp380
S':'
asbag57
(g78
g59
NtRp381
(dp382
g62
(dp383
sg71
g368
sg64
(lp384
g57
(g58
g59
NtRp385
(dp386
g62
(dp387
g70
I3
ssg71
g381
sg64
(lp388
S''
asbasbasbag57
(g73
g59
NtRp389
(dp390
g62
(dp391
sg71
g259
sg64
(lp392
g57
(g78
g59
NtRp393
(dp394
g62
(dp395
g82
g83
ssg71
g389
sg64
(lp396
S'secure'
p397
asbag57
(g78
g59
NtRp398
(dp399
g62
(dp400
g89
g90
ssg71
g389
sg64
(lp401
S':'
asbag57
(g78
g59
NtRp402
(dp403
g62
(dp404
sg71
g389
sg64
(lp405
g57
(g58
g59
NtRp406
(dp407
g62
(dp408
g70
I3
ssg71
g402
sg64
(lp409
S''
asbasbasbag57
(g73
g59
NtRp410
(dp411
g62
(dp412
sg71
g259
sg64
(lp413
g57
(g78
g59
NtRp414
(dp415
g62
(dp416
g82
g83
ssg71
g410
sg64
(lp417
S'version'
p418
asbag57
(g78
g59
NtRp419
(dp420
g62
(dp421
g89
g90
ssg71
g410
sg64
(lp422
S':'
asbag57
(g78
g59
NtRp423
(dp424
g62
(dp425
sg71
g410
sg64
(lp426
g57
(g58
g59
NtRp427
(dp428
g62
(dp429
g70
I3
ssg71
g423
sg64
(lp430
S''
asbasbasbasbasbasbasbag57
(g73
g59
NtRp431
(dp432
g62
(dp433
sg71
g234
sg64
(lp434
g57
(g78
g59
NtRp435
(dp436
g62
(dp437
g82
g83
ssg71
g431
sg64
(lp438
S'session_id_inventory'
p439
asbag57
(g78
g59
NtRp440
(dp441
g62
(dp442
g89
g90
ssg71
g431
sg64
(lp443
S':'
asbag57
(g78
g59
NtRp444
(dp445
g62
(dp446
sg71
g431
sg64
(lp447
g57
(g58
g59
NtRp448
(dp449
g62
(dp450
g70
I4
ssg71
g444
sg64
(lp451
g57
(g66
g59
NtRp452
(dp453
g62
(dp454
g70
I3
ssg71
Nsg64
(lp455
g57
(g73
g59
NtRp456
(dp457
g62
(dp458
sg71
g452
sg64
(lp459
g57
(g78
g59
NtRp460
(dp461
g62
(dp462
g82
g83
ssg71
g456
sg64
(lp463
g271
asbag57
(g78
g59
NtRp464
(dp465
g62
(dp466
g89
g90
ssg71
g456
sg64
(lp467
S':'
asbag57
(g78
g59
NtRp468
(dp469
g62
(dp470
sg71
g456
sg64
(lp471
g57
(g58
g59
NtRp472
(dp473
g62
(dp474
g70
I3
ssg71
g468
sg64
(lp475
S''
asbasbasbag57
(g73
g59
NtRp476
(dp477
g62
(dp478
sg71
g452
sg64
(lp479
g57
(g78
g59
NtRp480
(dp481
g62
(dp482
g82
g83
ssg71
g476
sg64
(lp483
g292
asbag57
(g78
g59
NtRp484
(dp485
g62
(dp486
g89
g90
ssg71
g476
sg64
(lp487
S':'
asbag57
(g78
g59
NtRp488
(dp489
g62
(dp490
sg71
g476
sg64
(lp491
g57
(g58
g59
NtRp492
(dp493
g62
(dp494
g70
I3
ssg71
g488
sg64
(lp495
S''
asbasbasbag57
(g73
g59
NtRp496
(dp497
g62
(dp498
sg71
g452
sg64
(lp499
g57
(g78
g59
NtRp500
(dp501
g62
(dp502
g82
g83
ssg71
g496
sg64
(lp503
g313
asbag57
(g78
g59
NtRp504
(dp505
g62
(dp506
g89
g90
ssg71
g496
sg64
(lp507
S':'
asbag57
(g78
g59
NtRp508
(dp509
g62
(dp510
sg71
g496
sg64
(lp511
g57
(g58
g59
NtRp512
(dp513
g62
(dp514
g70
I3
ssg71
g508
sg64
(lp515
S''
asbasbasbag57
(g73
g59
NtRp516
(dp517
g62
(dp518
sg71
g452
sg64
(lp519
g57
(g78
g59
NtRp520
(dp521
g62
(dp522
g82
g83
ssg71
g516
sg64
(lp523
g334
asbag57
(g78
g59
NtRp524
(dp525
g62
(dp526
g89
g90
ssg71
g516
sg64
(lp527
S':'
asbag57
(g78
g59
NtRp528
(dp529
g62
(dp530
sg71
g516
sg64
(lp531
g57
(g58
g59
NtRp532
(dp533
g62
(dp534
g70
I3
ssg71
g528
sg64
(lp535
S''
asbasbasbag57
(g73
g59
NtRp536
(dp537
g62
(dp538
sg71
g452
sg64
(lp539
g57
(g78
g59
NtRp540
(dp541
g62
(dp542
g82
g83
ssg71
g536
sg64
(lp543
g355
asbag57
(g78
g59
NtRp544
(dp545
g62
(dp546
g89
g90
ssg71
g536
sg64
(lp547
S':'
asbag57
(g78
g59
NtRp548
(dp549
g62
(dp550
sg71
g536
sg64
(lp551
g57
(g58
g59
NtRp552
(dp553
g62
(dp554
g70
I3
ssg71
g548
sg64
(lp555
S''
asbasbasbag57
(g73
g59
NtRp556
(dp557
g62
(dp558
sg71
g452
sg64
(lp559
g57
(g78
g59
NtRp560
(dp561
g62
(dp562
g82
g83
ssg71
g556
sg64
(lp563
g376
asbag57
(g78
g59
NtRp564
(dp565
g62
(dp566
g89
g90
ssg71
g556
sg64
(lp567
S':'
asbag57
(g78
g59
NtRp568
(dp569
g62
(dp570
sg71
g556
sg64
(lp571
g57
(g58
g59
NtRp572
(dp573
g62
(dp574
g70
I3
ssg71
g568
sg64
(lp575
S''
asbasbasbag57
(g73
g59
NtRp576
(dp577
g62
(dp578
sg71
g452
sg64
(lp579
g57
(g78
g59
NtRp580
(dp581
g62
(dp582
g82
g83
ssg71
g576
sg64
(lp583
g397
asbag57
(g78
g59
NtRp584
(dp585
g62
(dp586
g89
g90
ssg71
g576
sg64
(lp587
S':'
asbag57
(g78
g59
NtRp588
(dp589
g62
(dp590
sg71
g576
sg64
(lp591
g57
(g58
g59
NtRp592
(dp593
g62
(dp594
g70
I3
ssg71
g588
sg64
(lp595
S''
asbasbasbag57
(g73
g59
NtRp596
(dp597
g62
(dp598
sg71
g452
sg64
(lp599
g57
(g78
g59
NtRp600
(dp601
g62
(dp602
g82
g83
ssg71
g596
sg64
(lp603
g418
asbag57
(g78
g59
NtRp604
(dp605
g62
(dp606
g89
g90
ssg71
g596
sg64
(lp607
S':'
asbag57
(g78
g59
NtRp608
(dp609
g62
(dp610
sg71
g596
sg64
(lp611
g57
(g58
g59
NtRp612
(dp613
g62
(dp614
g70
I3
ssg71
g608
sg64
(lp615
S''
asbasbasbasbasbasbasbag57
(g73
g59
NtRp616
(dp617
g62
(dp618
sg71
g234
sg64
(lp619
g57
(g78
g59
NtRp620
(dp621
g62
(dp622
g82
g83
ssg71
g616
sg64
(lp623
S'session_id_welcome'
p624
asbag57
(g78
g59
NtRp625
(dp626
g62
(dp627
g89
g90
ssg71
g616
sg64
(lp628
S':'
asbag57
(g78
g59
NtRp629
(dp630
g62
(dp631
sg71
g616
sg64
(lp632
g57
(g58
g59
NtRp633
(dp634
g62
(dp635
g70
I4
ssg71
g629
sg64
(lp636
g57
(g66
g59
NtRp637
(dp638
g62
(dp639
g70
I3
ssg71
Nsg64
(lp640
g57
(g73
g59
NtRp641
(dp642
g62
(dp643
sg71
g637
sg64
(lp644
g57
(g78
g59
NtRp645
(dp646
g62
(dp647
g82
g83
ssg71
g641
sg64
(lp648
g271
asbag57
(g78
g59
NtRp649
(dp650
g62
(dp651
g89
g90
ssg71
g641
sg64
(lp652
S':'
asbag57
(g78
g59
NtRp653
(dp654
g62
(dp655
sg71
g641
sg64
(lp656
g57
(g58
g59
NtRp657
(dp658
g62
(dp659
g70
I3
ssg71
g653
sg64
(lp660
S''
asbasbasbag57
(g73
g59
NtRp661
(dp662
g62
(dp663
sg71
g637
sg64
(lp664
g57
(g78
g59
NtRp665
(dp666
g62
(dp667
g82
g83
ssg71
g661
sg64
(lp668
g292
asbag57
(g78
g59
NtRp669
(dp670
g62
(dp671
g89
g90
ssg71
g661
sg64
(lp672
S':'
asbag57
(g78
g59
NtRp673
(dp674
g62
(dp675
sg71
g661
sg64
(lp676
g57
(g58
g59
NtRp677
(dp678
g62
(dp679
g70
I3
ssg71
g673
sg64
(lp680
S''
asbasbasbag57
(g73
g59
NtRp681
(dp682
g62
(dp683
sg71
g637
sg64
(lp684
g57
(g78
g59
NtRp685
(dp686
g62
(dp687
g82
g83
ssg71
g681
sg64
(lp688
g313
asbag57
(g78
g59
NtRp689
(dp690
g62
(dp691
g89
g90
ssg71
g681
sg64
(lp692
S':'
asbag57
(g78
g59
NtRp693
(dp694
g62
(dp695
sg71
g681
sg64
(lp696
g57
(g58
g59
NtRp697
(dp698
g62
(dp699
g70
I3
ssg71
g693
sg64
(lp700
S''
asbasbasbag57
(g73
g59
NtRp701
(dp702
g62
(dp703
sg71
g637
sg64
(lp704
g57
(g78
g59
NtRp705
(dp706
g62
(dp707
g82
g83
ssg71
g701
sg64
(lp708
g334
asbag57
(g78
g59
NtRp709
(dp710
g62
(dp711
g89
g90
ssg71
g701
sg64
(lp712
S':'
asbag57
(g78
g59
NtRp713
(dp714
g62
(dp715
sg71
g701
sg64
(lp716
g57
(g58
g59
NtRp717
(dp718
g62
(dp719
g70
I3
ssg71
g713
sg64
(lp720
S''
asbasbasbag57
(g73
g59
NtRp721
(dp722
g62
(dp723
sg71
g637
sg64
(lp724
g57
(g78
g59
NtRp725
(dp726
g62
(dp727
g82
g83
ssg71
g721
sg64
(lp728
g355
asbag57
(g78
g59
NtRp729
(dp730
g62
(dp731
g89
g90
ssg71
g721
sg64
(lp732
S':'
asbag57
(g78
g59
NtRp733
(dp734
g62
(dp735
sg71
g721
sg64
(lp736
g57
(g58
g59
NtRp737
(dp738
g62
(dp739
g70
I3
ssg71
g733
sg64
(lp740
S''
asbasbasbag57
(g73
g59
NtRp741
(dp742
g62
(dp743
sg71
g637
sg64
(lp744
g57
(g78
g59
NtRp745
(dp746
g62
(dp747
g82
g83
ssg71
g741
sg64
(lp748
g376
asbag57
(g78
g59
NtRp749
(dp750
g62
(dp751
g89
g90
ssg71
g741
sg64
(lp752
S':'
asbag57
(g78
g59
NtRp753
(dp754
g62
(dp755
sg71
g741
sg64
(lp756
g57
(g58
g59
NtRp757
(dp758
g62
(dp759
g70
I3
ssg71
g753
sg64
(lp760
S''
asbasbasbag57
(g73
g59
NtRp761
(dp762
g62
(dp763
sg71
g637
sg64
(lp764
g57
(g78
g59
NtRp765
(dp766
g62
(dp767
g82
g83
ssg71
g761
sg64
(lp768
g397
asbag57
(g78
g59
NtRp769
(dp770
g62
(dp771
g89
g90
ssg71
g761
sg64
(lp772
S':'
asbag57
(g78
g59
NtRp773
(dp774
g62
(dp775
sg71
g761
sg64
(lp776
g57
(g58
g59
NtRp777
(dp778
g62
(dp779
g70
I3
ssg71
g773
sg64
(lp780
S''
asbasbasbag57
(g73
g59
NtRp781
(dp782
g62
(dp783
sg71
g637
sg64
(lp784
g57
(g78
g59
NtRp785
(dp786
g62
(dp787
g82
g83
ssg71
g781
sg64
(lp788
g418
asbag57
(g78
g59
NtRp789
(dp790
g62
(dp791
g89
g90
ssg71
g781
sg64
(lp792
S':'
asbag57
(g78
g59
NtRp793
(dp794
g62
(dp795
sg71
g781
sg64
(lp796
g57
(g58
g59
NtRp797
(dp798
g62
(dp799
g70
I3
ssg71
g793
sg64
(lp800
S''
asbasbasbasbasbasbasbasbasbasbasbag57
(g73
g59
NtRp801
(dp802
g62
(dp803
sg71
g67
sg64
(lp804
g57
(g78
g59
NtRp805
(dp806
g62
(dp807
g82
g83
ssg71
g801
sg64
(lp808
S'env'
p809
asbag57
(g78
g59
NtRp810
(dp811
g62
(dp812
g89
g90
ssg71
g801
sg64
(lp813
S':'
asbag57
(g78
g59
NtRp814
(dp815
g62
(dp816
sg71
g801
sg64
(lp817
g57
(g58
g59
NtRp818
(dp819
g62
(dp820
g70
I5
ssg71
g814
sg64
(lp821
g57
(g66
g59
NtRp822
(dp823
g62
(dp824
g70
I4
ssg71
Nsg64
(lp825
g57
(g73
g59
NtRp826
(dp827
g62
(dp828
sg71
g822
sg64
(lp829
g57
(g78
g59
NtRp830
(dp831
g62
(dp832
g82
g83
ssg71
g826
sg64
(lp833
S'app_folders'
p834
asbag57
(g78
g59
NtRp835
(dp836
g62
(dp837
g89
g90
ssg71
g826
sg64
(lp838
S':'
asbag57
(g78
g59
NtRp839
(dp840
g62
(dp841
sg71
g826
sg64
(lp842
g57
(g58
g59
NtRp843
(dp844
g62
(dp845
g70
I4
ssg71
g839
sg64
(lp846
S"set(['/home/jpr/Source/web2py/applications/admin/', '/home/jpr/Source/web2py/applications/Inventory/', '/home/jpr/Source/web2py/applications/welcome/'])"
p847
asbasbasbag57
(g73
g59
NtRp848
(dp849
g62
(dp850
sg71
g822
sg64
(lp851
g57
(g78
g59
NtRp852
(dp853
g62
(dp854
g82
g83
ssg71
g848
sg64
(lp855
S'applications_parent'
p856
asbag57
(g78
g59
NtRp857
(dp858
g62
(dp859
g89
g90
ssg71
g848
sg64
(lp860
S':'
asbag57
(g78
g59
NtRp861
(dp862
g62
(dp863
sg71
g848
sg64
(lp864
g57
(g58
g59
NtRp865
(dp866
g62
(dp867
g70
I4
ssg71
g861
sg64
(lp868
S'/home/jpr/Source/web2py'
p869
asbasbasbag57
(g73
g59
NtRp870
(dp871
g62
(dp872
sg71
g822
sg64
(lp873
g57
(g78
g59
NtRp874
(dp875
g62
(dp876
g82
g83
ssg71
g870
sg64
(lp877
S'cmd_args'
p878
asbag57
(g78
g59
NtRp879
(dp880
g62
(dp881
g89
g90
ssg71
g870
sg64
(lp882
S':'
asbag57
(g78
g59
NtRp883
(dp884
g62
(dp885
sg71
g870
sg64
(lp886
g57
(g58
g59
NtRp887
(dp888
g62
(dp889
g70
I4
ssg71
g883
sg64
(lp890
g57
(g66
g59
NtRp891
(dp892
g62
(dp893
g70
I3
ssg71
Nsg64
(lp894
sbasbasbasbag57
(g73
g59
NtRp895
(dp896
g62
(dp897
sg71
g822
sg64
(lp898
g57
(g78
g59
NtRp899
(dp900
g62
(dp901
g82
g83
ssg71
g895
sg64
(lp902
S'cmd_options'
p903
asbag57
(g78
g59
NtRp904
(dp905
g62
(dp906
g89
g90
ssg71
g895
sg64
(lp907
S':'
asbag57
(g78
g59
NtRp908
(dp909
g62
(dp910
sg71
g895
sg64
(lp911
g57
(g58
g59
NtRp912
(dp913
g62
(dp914
g70
I4
ssg71
g908
sg64
(lp915
S"<Values at 0xa938f0c: {'verbose': False, 'ip': '127.0.0.1', 'shutdown_timeout': 5, 'taskbar': False, 'nocron': False, 'pid_filename': 'httpserver.pid', 'maxthreads': None, 'softcron': False, 'server_name': 'Kserver', 'bpython': False, 'nogui': False, 'port': 8000, 'extcron': False, 'debuglevel': 30, 'test': None, 'folder': '/home/jpr/Source/web2py', 'config': '', 'import_models': False, 'winservice': '', 'shell': None, 'run': '', 'log_filename': 'httpserver.log', 'args': [''], 'socket_timeout': 5, 'ssl_ca_certificate': None, 'scheduler': None, 'profiler_filename': None, 'ssl_private_key': '', 'password': '<ask>', 'request_queue_size': 5, 'ssl_certificate': '', 'cronjob': False, 'numthreads': None, 'quiet': False, 'interfaces': None, 'minthreads': None, 'timeout': 10, 'plain': False, 'nobanner': False}>"
p916
asbasbasbag57
(g73
g59
NtRp917
(dp918
g62
(dp919
sg71
g822
sg64
(lp920
g57
(g78
g59
NtRp921
(dp922
g62
(dp923
g82
g83
ssg71
g917
sg64
(lp924
S'content_length'
p925
asbag57
(g78
g59
NtRp926
(dp927
g62
(dp928
g89
g90
ssg71
g917
sg64
(lp929
S':'
asbag57
(g78
g59
NtRp930
(dp931
g62
(dp932
sg71
g917
sg64
(lp933
g57
(g58
g59
NtRp934
(dp935
g62
(dp936
g70
I4
ssg71
g930
sg64
(lp937
S'1644'
p938
asbasbasbag57
(g73
g59
NtRp939
(dp940
g62
(dp941
sg71
g822
sg64
(lp942
g57
(g78
g59
NtRp943
(dp944
g62
(dp945
g82
g83
ssg71
g939
sg64
(lp946
S'content_type'
p947
asbag57
(g78
g59
NtRp948
(dp949
g62
(dp950
g89
g90
ssg71
g939
sg64
(lp951
S':'
asbag57
(g78
g59
NtRp952
(dp953
g62
(dp954
sg71
g939
sg64
(lp955
g57
(g58
g59
NtRp956
(dp957
g62
(dp958
g70
I4
ssg71
g952
sg64
(lp959
S'multipart/form-data; boundary=---------------------------13757631221246667971380810772'
p960
asbasbasbag57
(g73
g59
NtRp961
(dp962
g62
(dp963
sg71
g822
sg64
(lp964
g57
(g78
g59
NtRp965
(dp966
g62
(dp967
g82
g83
ssg71
g961
sg64
(lp968
S'db_sessions'
p969
asbag57
(g78
g59
NtRp970
(dp971
g62
(dp972
g89
g90
ssg71
g961
sg64
(lp973
S':'
asbag57
(g78
g59
NtRp974
(dp975
g62
(dp976
sg71
g961
sg64
(lp977
g57
(g58
g59
NtRp978
(dp979
g62
(dp980
g70
I4
ssg71
g974
sg64
(lp981
S'set([])'
p982
asbasbasbag57
(g73
g59
NtRp983
(dp984
g62
(dp985
sg71
g822
sg64
(lp986
g57
(g78
g59
NtRp987
(dp988
g62
(dp989
g82
g83
ssg71
g983
sg64
(lp990
S'debugging'
p991
asbag57
(g78
g59
NtRp992
(dp993
g62
(dp994
g89
g90
ssg71
g983
sg64
(lp995
S':'
asbag57
(g78
g59
NtRp996
(dp997
g62
(dp998
sg71
g983
sg64
(lp999
g57
(g58
g59
NtRp1000
(dp1001
g62
(dp1002
g70
I4
ssg71
g996
sg64
(lp1003
g100
asbasbasbag57
(g73
g59
NtRp1004
(dp1005
g62
(dp1006
sg71
g822
sg64
(lp1007
g57
(g78
g59
NtRp1008
(dp1009
g62
(dp1010
g82
g83
ssg71
g1004
sg64
(lp1011
S'gluon_parent'
p1012
asbag57
(g78
g59
NtRp1013
(dp1014
g62
(dp1015
g89
g90
ssg71
g1004
sg64
(lp1016
S':'
asbag57
(g78
g59
NtRp1017
(dp1018
g62
(dp1019
sg71
g1004
sg64
(lp1020
g57
(g58
g59
NtRp1021
(dp1022
g62
(dp1023
g70
I4
ssg71
g1017
sg64
(lp1024
S'/home/jpr/Source/web2py'
p1025
asbasbasbag57
(g73
g59
NtRp1026
(dp1027
g62
(dp1028
sg71
g822
sg64
(lp1029
g57
(g78
g59
NtRp1030
(dp1031
g62
(dp1032
g82
g83
ssg71
g1026
sg64
(lp1033
S'http_accept'
p1034
asbag57
(g78
g59
NtRp1035
(dp1036
g62
(dp1037
g89
g90
ssg71
g1026
sg64
(lp1038
S':'
asbag57
(g78
g59
NtRp1039
(dp1040
g62
(dp1041
sg71
g1026
sg64
(lp1042
g57
(g58
g59
NtRp1043
(dp1044
g62
(dp1045
g70
I4
ssg71
g1039
sg64
(lp1046
S'text/html,application/xhtml+xml,application/xml;q=0.9,*/*;q=0.8'
p1047
asbasbasbag57
(g73
g59
NtRp1048
(dp1049
g62
(dp1050
sg71
g822
sg64
(lp1051
g57
(g78
g59
NtRp1052
(dp1053
g62
(dp1054
g82
g83
ssg71
g1048
sg64
(lp1055
S'http_accept_encoding'
p1056
asbag57
(g78
g59
NtRp1057
(dp1058
g62
(dp1059
g89
g90
ssg71
g1048
sg64
(lp1060
S':'
asbag57
(g78
g59
NtRp1061
(dp1062
g62
(dp1063
sg71
g1048
sg64
(lp1064
g57
(g58
g59
NtRp1065
(dp1066
g62
(dp1067
g70
I4
ssg71
g1061
sg64
(lp1068
S'gzip, deflate'
p1069
asbasbasbag57
(g73
g59
NtRp1070
(dp1071
g62
(dp1072
sg71
g822
sg64
(lp1073
g57
(g78
g59
NtRp1074
(dp1075
g62
(dp1076
g82
g83
ssg71
g1070
sg64
(lp1077
S'http_accept_language'
p1078
asbag57
(g78
g59
NtRp1079
(dp1080
g62
(dp1081
g89
g90
ssg71
g1070
sg64
(lp1082
S':'
asbag57
(g78
g59
NtRp1083
(dp1084
g62
(dp1085
sg71
g1070
sg64
(lp1086
g57
(g58
g59
NtRp1087
(dp1088
g62
(dp1089
g70
I4
ssg71
g1083
sg64
(lp1090
S'en-us,en;q=0.5'
p1091
asbasbasbag57
(g73
g59
NtRp1092
(dp1093
g62
(dp1094
sg71
g822
sg64
(lp1095
g57
(g78
g59
NtRp1096
(dp1097
g62
(dp1098
g82
g83
ssg71
g1092
sg64
(lp1099
S'http_connection'
p1100
asbag57
(g78
g59
NtRp1101
(dp1102
g62
(dp1103
g89
g90
ssg71
g1092
sg64
(lp1104
S':'
asbag57
(g78
g59
NtRp1105
(dp1106
g62
(dp1107
sg71
g1092
sg64
(lp1108
g57
(g58
g59
NtRp1109
(dp1110
g62
(dp1111
g70
I4
ssg71
g1105
sg64
(lp1112
S'keep-alive'
p1113
asbasbasbag57
(g73
g59
NtRp1114
(dp1115
g62
(dp1116
sg71
g822
sg64
(lp1117
g57
(g78
g59
NtRp1118
(dp1119
g62
(dp1120
g82
g83
ssg71
g1114
sg64
(lp1121
S'http_content_length'
p1122
asbag57
(g78
g59
NtRp1123
(dp1124
g62
(dp1125
g89
g90
ssg71
g1114
sg64
(lp1126
S':'
asbag57
(g78
g59
NtRp1127
(dp1128
g62
(dp1129
sg71
g1114
sg64
(lp1130
g57
(g58
g59
NtRp1131
(dp1132
g62
(dp1133
g70
I4
ssg71
g1127
sg64
(lp1134
g938
asbasbasbag57
(g73
g59
NtRp1135
(dp1136
g62
(dp1137
sg71
g822
sg64
(lp1138
g57
(g78
g59
NtRp1139
(dp1140
g62
(dp1141
g82
g83
ssg71
g1135
sg64
(lp1142
S'http_content_type'
p1143
asbag57
(g78
g59
NtRp1144
(dp1145
g62
(dp1146
g89
g90
ssg71
g1135
sg64
(lp1147
S':'
asbag57
(g78
g59
NtRp1148
(dp1149
g62
(dp1150
sg71
g1135
sg64
(lp1151
g57
(g58
g59
NtRp1152
(dp1153
g62
(dp1154
g70
I4
ssg71
g1148
sg64
(lp1155
g960
asbasbasbag57
(g73
g59
NtRp1156
(dp1157
g62
(dp1158
sg71
g822
sg64
(lp1159
g57
(g78
g59
NtRp1160
(dp1161
g62
(dp1162
g82
g83
ssg71
g1156
sg64
(lp1163
S'http_cookie'
p1164
asbag57
(g78
g59
NtRp1165
(dp1166
g62
(dp1167
g89
g90
ssg71
g1156
sg64
(lp1168
S':'
asbag57
(g78
g59
NtRp1169
(dp1170
g62
(dp1171
sg71
g1156
sg64
(lp1172
g57
(g58
g59
NtRp1173
(dp1174
g62
(dp1175
g70
I4
ssg71
g1169
sg64
(lp1176
S'session_id_welcome=127.0.0.1-909cc83f-7ecc-4827-bc27-29ec71dbbd3c; session_id_admin=127.0.0.1-bfffc65c-bdab-4550-a5ec-e4f2fbcb1b4e; session_id_inventory=127.0.0.1-843ac654-d601-4208-8fea-a12f721c7d34'
p1177
asbasbasbag57
(g73
g59
NtRp1178
(dp1179
g62
(dp1180
sg71
g822
sg64
(lp1181
g57
(g78
g59
NtRp1182
(dp1183
g62
(dp1184
g82
g83
ssg71
g1178
sg64
(lp1185
S'http_host'
p1186
asbag57
(g78
g59
NtRp1187
(dp1188
g62
(dp1189
g89
g90
ssg71
g1178
sg64
(lp1190
S':'
asbag57
(g78
g59
NtRp1191
(dp1192
g62
(dp1193
sg71
g1178
sg64
(lp1194
g57
(g58
g59
NtRp1195
(dp1196
g62
(dp1197
g70
I4
ssg71
g1191
sg64
(lp1198
S'127.0.0.1:8000'
p1199
asbasbasbag57
(g73
g59
NtRp1200
(dp1201
g62
(dp1202
sg71
g822
sg64
(lp1203
g57
(g78
g59
NtRp1204
(dp1205
g62
(dp1206
g82
g83
ssg71
g1200
sg64
(lp1207
S'http_referer'
p1208
asbag57
(g78
g59
NtRp1209
(dp1210
g62
(dp1211
g89
g90
ssg71
g1200
sg64
(lp1212
S':'
asbag57
(g78
g59
NtRp1213
(dp1214
g62
(dp1215
sg71
g1200
sg64
(lp1216
g57
(g58
g59
NtRp1217
(dp1218
g62
(dp1219
g70
I4
ssg71
g1213
sg64
(lp1220
S'http://127.0.0.1:8000/Inventory/qrinv/enter_inventory'
p1221
asbasbasbag57
(g73
g59
NtRp1222
(dp1223
g62
(dp1224
sg71
g822
sg64
(lp1225
g57
(g78
g59
NtRp1226
(dp1227
g62
(dp1228
g82
g83
ssg71
g1222
sg64
(lp1229
S'http_user_agent'
p1230
asbag57
(g78
g59
NtRp1231
(dp1232
g62
(dp1233
g89
g90
ssg71
g1222
sg64
(lp1234
S':'
asbag57
(g78
g59
NtRp1235
(dp1236
g62
(dp1237
sg71
g1222
sg64
(lp1238
g57
(g58
g59
NtRp1239
(dp1240
g62
(dp1241
g70
I4
ssg71
g1235
sg64
(lp1242
S'Mozilla/5.0 (X11; Ubuntu; Linux i686; rv:14.0) Gecko/20100101 Firefox/14.0.1'
p1243
asbasbasbag57
(g73
g59
NtRp1244
(dp1245
g62
(dp1246
sg71
g822
sg64
(lp1247
g57
(g78
g59
NtRp1248
(dp1249
g62
(dp1250
g82
g83
ssg71
g1244
sg64
(lp1251
S'is_jython'
p1252
asbag57
(g78
g59
NtRp1253
(dp1254
g62
(dp1255
g89
g90
ssg71
g1244
sg64
(lp1256
S':'
asbag57
(g78
g59
NtRp1257
(dp1258
g62
(dp1259
sg71
g1244
sg64
(lp1260
g57
(g58
g59
NtRp1261
(dp1262
g62
(dp1263
g70
I4
ssg71
g1257
sg64
(lp1264
g100
asbasbasbag57
(g73
g59
NtRp1265
(dp1266
g62
(dp1267
sg71
g822
sg64
(lp1268
g57
(g78
g59
NtRp1269
(dp1270
g62
(dp1271
g82
g83
ssg71
g1265
sg64
(lp1272
S'is_pypy'
p1273
asbag57
(g78
g59
NtRp1274
(dp1275
g62
(dp1276
g89
g90
ssg71
g1265
sg64
(lp1277
S':'
asbag57
(g78
g59
NtRp1278
(dp1279
g62
(dp1280
sg71
g1265
sg64
(lp1281
g57
(g58
g59
NtRp1282
(dp1283
g62
(dp1284
g70
I4
ssg71
g1278
sg64
(lp1285
g100
asbasbasbag57
(g73
g59
NtRp1286
(dp1287
g62
(dp1288
sg71
g822
sg64
(lp1289
g57
(g78
g59
NtRp1290
(dp1291
g62
(dp1292
g82
g83
ssg71
g1286
sg64
(lp1293
S'path_info'
p1294
asbag57
(g78
g59
NtRp1295
(dp1296
g62
(dp1297
g89
g90
ssg71
g1286
sg64
(lp1298
S':'
asbag57
(g78
g59
NtRp1299
(dp1300
g62
(dp1301
sg71
g1286
sg64
(lp1302
g57
(g58
g59
NtRp1303
(dp1304
g62
(dp1305
g70
I4
ssg71
g1299
sg64
(lp1306
S'/Inventory/qrinv/enter_inventory'
p1307
asbasbasbag57
(g73
g59
NtRp1308
(dp1309
g62
(dp1310
sg71
g822
sg64
(lp1311
g57
(g78
g59
NtRp1312
(dp1313
g62
(dp1314
g82
g83
ssg71
g1308
sg64
(lp1315
S'query_string'
p1316
asbag57
(g78
g59
NtRp1317
(dp1318
g62
(dp1319
g89
g90
ssg71
g1308
sg64
(lp1320
S':'
asbag57
(g78
g59
NtRp1321
(dp1322
g62
(dp1323
sg71
g1308
sg64
(lp1324
g57
(g58
g59
NtRp1325
(dp1326
g62
(dp1327
g70
I4
ssg71
g1321
sg64
(lp1328
S''
asbasbasbag57
(g73
g59
NtRp1329
(dp1330
g62
(dp1331
sg71
g822
sg64
(lp1332
g57
(g78
g59
NtRp1333
(dp1334
g62
(dp1335
g82
g83
ssg71
g1329
sg64
(lp1336
S'remote_addr'
p1337
asbag57
(g78
g59
NtRp1338
(dp1339
g62
(dp1340
g89
g90
ssg71
g1329
sg64
(lp1341
S':'
asbag57
(g78
g59
NtRp1342
(dp1343
g62
(dp1344
sg71
g1329
sg64
(lp1345
g57
(g58
g59
NtRp1346
(dp1347
g62
(dp1348
g70
I4
ssg71
g1342
sg64
(lp1349
g190
asbasbasbag57
(g73
g59
NtRp1350
(dp1351
g62
(dp1352
sg71
g822
sg64
(lp1353
g57
(g78
g59
NtRp1354
(dp1355
g62
(dp1356
g82
g83
ssg71
g1350
sg64
(lp1357
S'remote_port'
p1358
asbag57
(g78
g59
NtRp1359
(dp1360
g62
(dp1361
g89
g90
ssg71
g1350
sg64
(lp1362
S':'
asbag57
(g78
g59
NtRp1363
(dp1364
g62
(dp1365
sg71
g1350
sg64
(lp1366
g57
(g58
g59
NtRp1367
(dp1368
g62
(dp1369
g70
I4
ssg71
g1363
sg64
(lp1370
S'34077'
p1371
asbasbasbag57
(g73
g59
NtRp1372
(dp1373
g62
(dp1374
sg71
g822
sg64
(lp1375
g57
(g78
g59
NtRp1376
(dp1377
g62
(dp1378
g82
g83
ssg71
g1372
sg64
(lp1379
S'request_method'
p1380
asbag57
(g78
g59
NtRp1381
(dp1382
g62
(dp1383
g89
g90
ssg71
g1372
sg64
(lp1384
S':'
asbag57
(g78
g59
NtRp1385
(dp1386
g62
(dp1387
sg71
g1372
sg64
(lp1388
g57
(g58
g59
NtRp1389
(dp1390
g62
(dp1391
g70
I4
ssg71
g1385
sg64
(lp1392
S'POST'
p1393
asbasbasbag57
(g73
g59
NtRp1394
(dp1395
g62
(dp1396
sg71
g822
sg64
(lp1397
g57
(g78
g59
NtRp1398
(dp1399
g62
(dp1400
g82
g83
ssg71
g1394
sg64
(lp1401
S'script_name'
p1402
asbag57
(g78
g59
NtRp1403
(dp1404
g62
(dp1405
g89
g90
ssg71
g1394
sg64
(lp1406
S':'
asbag57
(g78
g59
NtRp1407
(dp1408
g62
(dp1409
sg71
g1394
sg64
(lp1410
g57
(g58
g59
NtRp1411
(dp1412
g62
(dp1413
g70
I4
ssg71
g1407
sg64
(lp1414
S''
asbasbasbag57
(g73
g59
NtRp1415
(dp1416
g62
(dp1417
sg71
g822
sg64
(lp1418
g57
(g78
g59
NtRp1419
(dp1420
g62
(dp1421
g82
g83
ssg71
g1415
sg64
(lp1422
S'server_name'
p1423
asbag57
(g78
g59
NtRp1424
(dp1425
g62
(dp1426
g89
g90
ssg71
g1415
sg64
(lp1427
S':'
asbag57
(g78
g59
NtRp1428
(dp1429
g62
(dp1430
sg71
g1415
sg64
(lp1431
g57
(g58
g59
NtRp1432
(dp1433
g62
(dp1434
g70
I4
ssg71
g1428
sg64
(lp1435
S'Kserver'
p1436
asbasbasbag57
(g73
g59
NtRp1437
(dp1438
g62
(dp1439
sg71
g822
sg64
(lp1440
g57
(g78
g59
NtRp1441
(dp1442
g62
(dp1443
g82
g83
ssg71
g1437
sg64
(lp1444
S'server_port'
p1445
asbag57
(g78
g59
NtRp1446
(dp1447
g62
(dp1448
g89
g90
ssg71
g1437
sg64
(lp1449
S':'
asbag57
(g78
g59
NtRp1450
(dp1451
g62
(dp1452
sg71
g1437
sg64
(lp1453
g57
(g58
g59
NtRp1454
(dp1455
g62
(dp1456
g70
I4
ssg71
g1450
sg64
(lp1457
S'8000'
p1458
asbasbasbag57
(g73
g59
NtRp1459
(dp1460
g62
(dp1461
sg71
g822
sg64
(lp1462
g57
(g78
g59
NtRp1463
(dp1464
g62
(dp1465
g82
g83
ssg71
g1459
sg64
(lp1466
S'server_protocol'
p1467
asbag57
(g78
g59
NtRp1468
(dp1469
g62
(dp1470
g89
g90
ssg71
g1459
sg64
(lp1471
S':'
asbag57
(g78
g59
NtRp1472
(dp1473
g62
(dp1474
sg71
g1459
sg64
(lp1475
g57
(g58
g59
NtRp1476
(dp1477
g62
(dp1478
g70
I4
ssg71
g1472
sg64
(lp1479
S'HTTP/1.1'
p1480
asbasbasbag57
(g73
g59
NtRp1481
(dp1482
g62
(dp1483
sg71
g822
sg64
(lp1484
g57
(g78
g59
NtRp1485
(dp1486
g62
(dp1487
g82
g83
ssg71
g1481
sg64
(lp1488
S'server_software'
p1489
asbag57
(g78
g59
NtRp1490
(dp1491
g62
(dp1492
g89
g90
ssg71
g1481
sg64
(lp1493
S':'
asbag57
(g78
g59
NtRp1494
(dp1495
g62
(dp1496
sg71
g1481
sg64
(lp1497
g57
(g58
g59
NtRp1498
(dp1499
g62
(dp1500
g70
I4
ssg71
g1494
sg64
(lp1501
S'Rocket 1.2.4'
p1502
asbasbasbag57
(g73
g59
NtRp1503
(dp1504
g62
(dp1505
sg71
g822
sg64
(lp1506
g57
(g78
g59
NtRp1507
(dp1508
g62
(dp1509
g82
g83
ssg71
g1503
sg64
(lp1510
S'web2py_crontype'
p1511
asbag57
(g78
g59
NtRp1512
(dp1513
g62
(dp1514
g89
g90
ssg71
g1503
sg64
(lp1515
S':'
asbag57
(g78
g59
NtRp1516
(dp1517
g62
(dp1518
sg71
g1503
sg64
(lp1519
g57
(g58
g59
NtRp1520
(dp1521
g62
(dp1522
g70
I4
ssg71
g1516
sg64
(lp1523
S'hard'
p1524
asbasbasbag57
(g73
g59
NtRp1525
(dp1526
g62
(dp1527
sg71
g822
sg64
(lp1528
g57
(g78
g59
NtRp1529
(dp1530
g62
(dp1531
g82
g83
ssg71
g1525
sg64
(lp1532
S'web2py_path'
p1533
asbag57
(g78
g59
NtRp1534
(dp1535
g62
(dp1536
g89
g90
ssg71
g1525
sg64
(lp1537
S':'
asbag57
(g78
g59
NtRp1538
(dp1539
g62
(dp1540
sg71
g1525
sg64
(lp1541
g57
(g58
g59
NtRp1542
(dp1543
g62
(dp1544
g70
I4
ssg71
g1538
sg64
(lp1545
g869
asbasbasbag57
(g73
g59
NtRp1546
(dp1547
g62
(dp1548
sg71
g822
sg64
(lp1549
g57
(g78
g59
NtRp1550
(dp1551
g62
(dp1552
g82
g83
ssg71
g1546
sg64
(lp1553
S'web2py_version'
p1554
asbag57
(g78
g59
NtRp1555
(dp1556
g62
(dp1557
g89
g90
ssg71
g1546
sg64
(lp1558
S':'
asbag57
(g78
g59
NtRp1559
(dp1560
g62
(dp1561
sg71
g1546
sg64
(lp1562
g57
(g58
g59
NtRp1563
(dp1564
g62
(dp1565
g70
I4
ssg71
g1559
sg64
(lp1566
g57
(g66
g59
NtRp1567
(dp1568
g62
(dp1569
g70
I3
ssg71
Nsg64
(lp1570
g57
(g73
g59
NtRp1571
(dp1572
g62
(dp1573
sg71
g1567
sg64
(lp1574
g57
(g78
g59
NtRp1575
(dp1576
g62
(dp1577
sg71
g1571
sg64
(lp1578
g57
(g58
g59
NtRp1579
(dp1580
g62
(dp1581
g70
I3
ssg71
g1575
sg64
(lp1582
S'1'
asbasbasbag57
(g73
g59
NtRp1583
(dp1584
g62
(dp1585
sg71
g1567
sg64
(lp1586
g57
(g78
g59
NtRp1587
(dp1588
g62
(dp1589
sg71
g1583
sg64
(lp1590
g57
(g58
g59
NtRp1591
(dp1592
g62
(dp1593
g70
I3
ssg71
g1587
sg64
(lp1594
S'99'
p1595
asbasbasbag57
(g73
g59
NtRp1596
(dp1597
g62
(dp1598
sg71
g1567
sg64
(lp1599
g57
(g78
g59
NtRp1600
(dp1601
g62
(dp1602
sg71
g1596
sg64
(lp1603
g57
(g58
g59
NtRp1604
(dp1605
g62
(dp1606
g70
I3
ssg71
g1600
sg64
(lp1607
S'7'
asbasbasbag57
(g73
g59
NtRp1608
(dp1609
g62
(dp1610
sg71
g1567
sg64
(lp1611
g57
(g78
g59
NtRp1612
(dp1613
g62
(dp1614
sg71
g1608
sg64
(lp1615
g57
(g58
g59
NtRp1616
(dp1617
g62
(dp1618
g70
I3
ssg71
g1612
sg64
(lp1619
S'datetime.datetime(2012, 3, 4, 22, 12, 8)'
p1620
asbasbasbag57
(g73
g59
NtRp1621
(dp1622
g62
(dp1623
sg71
g1567
sg64
(lp1624
g57
(g78
g59
NtRp1625
(dp1626
g62
(dp1627
sg71
g1621
sg64
(lp1628
g57
(g58
g59
NtRp1629
(dp1630
g62
(dp1631
g70
I3
ssg71
g1625
sg64
(lp1632
S'stable'
p1633
asbasbasbasbasbasbasbag57
(g73
g59
NtRp1634
(dp1635
g62
(dp1636
sg71
g822
sg64
(lp1637
g57
(g78
g59
NtRp1638
(dp1639
g62
(dp1640
g82
g83
ssg71
g1634
sg64
(lp1641
S'wsgi_errors'
p1642
asbag57
(g78
g59
NtRp1643
(dp1644
g62
(dp1645
g89
g90
ssg71
g1634
sg64
(lp1646
S':'
asbag57
(g78
g59
NtRp1647
(dp1648
g62
(dp1649
sg71
g1634
sg64
(lp1650
g57
(g58
g59
NtRp1651
(dp1652
g62
(dp1653
g70
I4
ssg71
g1647
sg64
(lp1654
S"<open file '<stderr>', mode 'w' at 0xb782a0d0>"
p1655
asbasbasbag57
(g73
g59
NtRp1656
(dp1657
g62
(dp1658
sg71
g822
sg64
(lp1659
g57
(g78
g59
NtRp1660
(dp1661
g62
(dp1662
g82
g83
ssg71
g1656
sg64
(lp1663
S'wsgi_file_wrapper'
p1664
asbag57
(g78
g59
NtRp1665
(dp1666
g62
(dp1667
g89
g90
ssg71
g1656
sg64
(lp1668
S':'
asbag57
(g78
g59
NtRp1669
(dp1670
g62
(dp1671
sg71
g1656
sg64
(lp1672
g57
(g58
g59
NtRp1673
(dp1674
g62
(dp1675
g70
I4
ssg71
g1669
sg64
(lp1676
S'<class wsgiref.util.FileWrapper at 0xa845dac>'
p1677
asbasbasbag57
(g73
g59
NtRp1678
(dp1679
g62
(dp1680
sg71
g822
sg64
(lp1681
g57
(g78
g59
NtRp1682
(dp1683
g62
(dp1684
g82
g83
ssg71
g1678
sg64
(lp1685
S'wsgi_input'
p1686
asbag57
(g78
g59
NtRp1687
(dp1688
g62
(dp1689
g89
g90
ssg71
g1678
sg64
(lp1690
S':'
asbag57
(g78
g59
NtRp1691
(dp1692
g62
(dp1693
sg71
g1678
sg64
(lp1694
g57
(g58
g59
NtRp1695
(dp1696
g62
(dp1697
g70
I4
ssg71
g1691
sg64
(lp1698
S'<socket._fileobject object at 0xb1316ac>'
p1699
asbasbasbag57
(g73
g59
NtRp1700
(dp1701
g62
(dp1702
sg71
g822
sg64
(lp1703
g57
(g78
g59
NtRp1704
(dp1705
g62
(dp1706
g82
g83
ssg71
g1700
sg64
(lp1707
S'wsgi_multiprocess'
p1708
asbag57
(g78
g59
NtRp1709
(dp1710
g62
(dp1711
g89
g90
ssg71
g1700
sg64
(lp1712
S':'
asbag57
(g78
g59
NtRp1713
(dp1714
g62
(dp1715
sg71
g1700
sg64
(lp1716
g57
(g58
g59
NtRp1717
(dp1718
g62
(dp1719
g70
I4
ssg71
g1713
sg64
(lp1720
g100
asbasbasbag57
(g73
g59
NtRp1721
(dp1722
g62
(dp1723
sg71
g822
sg64
(lp1724
g57
(g78
g59
NtRp1725
(dp1726
g62
(dp1727
g82
g83
ssg71
g1721
sg64
(lp1728
S'wsgi_multithread'
p1729
asbag57
(g78
g59
NtRp1730
(dp1731
g62
(dp1732
g89
g90
ssg71
g1721
sg64
(lp1733
S':'
asbag57
(g78
g59
NtRp1734
(dp1735
g62
(dp1736
sg71
g1721
sg64
(lp1737
g57
(g58
g59
NtRp1738
(dp1739
g62
(dp1740
g70
I4
ssg71
g1734
sg64
(lp1741
S'True'
p1742
asbasbasbag57
(g73
g59
NtRp1743
(dp1744
g62
(dp1745
sg71
g822
sg64
(lp1746
g57
(g78
g59
NtRp1747
(dp1748
g62
(dp1749
g82
g83
ssg71
g1743
sg64
(lp1750
S'wsgi_run_once'
p1751
asbag57
(g78
g59
NtRp1752
(dp1753
g62
(dp1754
g89
g90
ssg71
g1743
sg64
(lp1755
S':'
asbag57
(g78
g59
NtRp1756
(dp1757
g62
(dp1758
sg71
g1743
sg64
(lp1759
g57
(g58
g59
NtRp1760
(dp1761
g62
(dp1762
g70
I4
ssg71
g1756
sg64
(lp1763
g100
asbasbasbag57
(g73
g59
NtRp1764
(dp1765
g62
(dp1766
sg71
g822
sg64
(lp1767
g57
(g78
g59
NtRp1768
(dp1769
g62
(dp1770
g82
g83
ssg71
g1764
sg64
(lp1771
S'wsgi_url_scheme'
p1772
asbag57
(g78
g59
NtRp1773
(dp1774
g62
(dp1775
g89
g90
ssg71
g1764
sg64
(lp1776
S':'
asbag57
(g78
g59
NtRp1777
(dp1778
g62
(dp1779
sg71
g1764
sg64
(lp1780
g57
(g58
g59
NtRp1781
(dp1782
g62
(dp1783
g70
I4
ssg71
g1777
sg64
(lp1784
S'http'
p1785
asbasbasbag57
(g73
g59
NtRp1786
(dp1787
g62
(dp1788
sg71
g822
sg64
(lp1789
g57
(g78
g59
NtRp1790
(dp1791
g62
(dp1792
g82
g83
ssg71
g1786
sg64
(lp1793
S'wsgi_version'
p1794
asbag57
(g78
g59
NtRp1795
(dp1796
g62
(dp1797
g89
g90
ssg71
g1786
sg64
(lp1798
S':'
asbag57
(g78
g59
NtRp1799
(dp1800
g62
(dp1801
sg71
g1786
sg64
(lp1802
g57
(g58
g59
NtRp1803
(dp1804
g62
(dp1805
g70
I4
ssg71
g1799
sg64
(lp1806
g57
(g66
g59
NtRp1807
(dp1808
g62
(dp1809
g70
I3
ssg71
Nsg64
(lp1810
g57
(g73
g59
NtRp1811
(dp1812
g62
(dp1813
sg71
g1807
sg64
(lp1814
g57
(g78
g59
NtRp1815
(dp1816
g62
(dp1817
sg71
g1811
sg64
(lp1818
g57
(g58
g59
NtRp1819
(dp1820
g62
(dp1821
g70
I3
ssg71
g1815
sg64
(lp1822
S'1'
asbasbasbag57
(g73
g59
NtRp1823
(dp1824
g62
(dp1825
sg71
g1807
sg64
(lp1826
g57
(g78
g59
NtRp1827
(dp1828
g62
(dp1829
sg71
g1823
sg64
(lp1830
g57
(g58
g59
NtRp1831
(dp1832
g62
(dp1833
g70
I3
ssg71
g1827
sg64
(lp1834
S'0'
asbasbasbasbasbasbasbasbasbasbasbag57
(g73
g59
NtRp1835
(dp1836
g62
(dp1837
sg71
g67
sg64
(lp1838
g57
(g78
g59
NtRp1839
(dp1840
g62
(dp1841
g82
g83
ssg71
g1835
sg64
(lp1842
S'extension'
p1843
asbag57
(g78
g59
NtRp1844
(dp1845
g62
(dp1846
g89
g90
ssg71
g1835
sg64
(lp1847
S':'
asbag57
(g78
g59
NtRp1848
(dp1849
g62
(dp1850
sg71
g1835
sg64
(lp1851
g57
(g58
g59
NtRp1852
(dp1853
g62
(dp1854
g70
I5
ssg71
g1848
sg64
(lp1855
S'html'
p1856
asbasbasbag57
(g73
g59
NtRp1857
(dp1858
g62
(dp1859
sg71
g67
sg64
(lp1860
g57
(g78
g59
NtRp1861
(dp1862
g62
(dp1863
g82
g83
ssg71
g1857
sg64
(lp1864
S'folder'
p1865
asbag57
(g78
g59
NtRp1866
(dp1867
g62
(dp1868
g89
g90
ssg71
g1857
sg64
(lp1869
S':'
asbag57
(g78
g59
NtRp1870
(dp1871
g62
(dp1872
sg71
g1857
sg64
(lp1873
g57
(g58
g59
NtRp1874
(dp1875
g62
(dp1876
g70
I5
ssg71
g1870
sg64
(lp1877
S'/home/jpr/Source/web2py/applications/Inventory/'
p1878
asbasbasbag57
(g73
g59
NtRp1879
(dp1880
g62
(dp1881
sg71
g67
sg64
(lp1882
g57
(g78
g59
NtRp1883
(dp1884
g62
(dp1885
g82
g83
ssg71
g1879
sg64
(lp1886
S'function'
p1887
asbag57
(g78
g59
NtRp1888
(dp1889
g62
(dp1890
g89
g90
ssg71
g1879
sg64
(lp1891
S':'
asbag57
(g78
g59
NtRp1892
(dp1893
g62
(dp1894
sg71
g1879
sg64
(lp1895
g57
(g58
g59
NtRp1896
(dp1897
g62
(dp1898
g70
I5
ssg71
g1892
sg64
(lp1899
S'enter_inventory'
p1900
asbasbasbag57
(g73
g59
NtRp1901
(dp1902
g62
(dp1903
sg71
g67
sg64
(lp1904
g57
(g78
g59
NtRp1905
(dp1906
g62
(dp1907
g82
g83
ssg71
g1901
sg64
(lp1908
S'get_vars'
p1909
asbag57
(g78
g59
NtRp1910
(dp1911
g62
(dp1912
g89
g90
ssg71
g1901
sg64
(lp1913
S':'
asbag57
(g78
g59
NtRp1914
(dp1915
g62
(dp1916
sg71
g1901
sg64
(lp1917
g57
(g58
g59
NtRp1918
(dp1919
g62
(dp1920
g70
I5
ssg71
g1914
sg64
(lp1921
g57
(g66
g59
NtRp1922
(dp1923
g62
(dp1924
g70
I4
ssg71
Nsg64
(lp1925
sbasbasbasbag57
(g73
g59
NtRp1926
(dp1927
g62
(dp1928
sg71
g67
sg64
(lp1929
g57
(g78
g59
NtRp1930
(dp1931
g62
(dp1932
g82
g83
ssg71
g1926
sg64
(lp1933
S'global_settings'
p1934
asbag57
(g78
g59
NtRp1935
(dp1936
g62
(dp1937
g89
g90
ssg71
g1926
sg64
(lp1938
S':'
asbag57
(g78
g59
NtRp1939
(dp1940
g62
(dp1941
sg71
g1926
sg64
(lp1942
g57
(g58
g59
NtRp1943
(dp1944
g62
(dp1945
g70
I5
ssg71
g1939
sg64
(lp1946
g57
(g66
g59
NtRp1947
(dp1948
g62
(dp1949
g70
I4
ssg71
Nsg64
(lp1950
g57
(g73
g59
NtRp1951
(dp1952
g62
(dp1953
sg71
g1947
sg64
(lp1954
g57
(g78
g59
NtRp1955
(dp1956
g62
(dp1957
g82
g83
ssg71
g1951
sg64
(lp1958
g834
asbag57
(g78
g59
NtRp1959
(dp1960
g62
(dp1961
g89
g90
ssg71
g1951
sg64
(lp1962
S':'
asbag57
(g78
g59
NtRp1963
(dp1964
g62
(dp1965
sg71
g1951
sg64
(lp1966
g57
(g58
g59
NtRp1967
(dp1968
g62
(dp1969
g70
I4
ssg71
g1963
sg64
(lp1970
S"set(['/home/jpr/Source/web2py/applications/admin/', '/home/jpr/Source/web2py/applications/Inventory/', '/home/jpr/Source/web2py/applications/welcome/'])"
p1971
asbasbasbag57
(g73
g59
NtRp1972
(dp1973
g62
(dp1974
sg71
g1947
sg64
(lp1975
g57
(g78
g59
NtRp1976
(dp1977
g62
(dp1978
g82
g83
ssg71
g1972
sg64
(lp1979
g856
asbag57
(g78
g59
NtRp1980
(dp1981
g62
(dp1982
g89
g90
ssg71
g1972
sg64
(lp1983
S':'
asbag57
(g78
g59
NtRp1984
(dp1985
g62
(dp1986
sg71
g1972
sg64
(lp1987
g57
(g58
g59
NtRp1988
(dp1989
g62
(dp1990
g70
I4
ssg71
g1984
sg64
(lp1991
g869
asbasbasbag57
(g73
g59
NtRp1992
(dp1993
g62
(dp1994
sg71
g1947
sg64
(lp1995
g57
(g78
g59
NtRp1996
(dp1997
g62
(dp1998
g82
g83
ssg71
g1992
sg64
(lp1999
g878
asbag57
(g78
g59
NtRp2000
(dp2001
g62
(dp2002
g89
g90
ssg71
g1992
sg64
(lp2003
S':'
asbag57
(g78
g59
NtRp2004
(dp2005
g62
(dp2006
sg71
g1992
sg64
(lp2007
g57
(g58
g59
NtRp2008
(dp2009
g62
(dp2010
g70
I4
ssg71
g2004
sg64
(lp2011
g57
(g66
g59
NtRp2012
(dp2013
g62
(dp2014
g70
I3
ssg71
Nsg64
(lp2015
sbasbasbasbag57
(g73
g59
NtRp2016
(dp2017
g62
(dp2018
sg71
g1947
sg64
(lp2019
g57
(g78
g59
NtRp2020
(dp2021
g62
(dp2022
g82
g83
ssg71
g2016
sg64
(lp2023
g903
asbag57
(g78
g59
NtRp2024
(dp2025
g62
(dp2026
g89
g90
ssg71
g2016
sg64
(lp2027
S':'
asbag57
(g78
g59
NtRp2028
(dp2029
g62
(dp2030
sg71
g2016
sg64
(lp2031
g57
(g58
g59
NtRp2032
(dp2033
g62
(dp2034
g70
I4
ssg71
g2028
sg64
(lp2035
S"<Values at 0xa938f0c: {'verbose': False, 'ip': '127.0.0.1', 'shutdown_timeout': 5, 'taskbar': False, 'nocron': False, 'pid_filename': 'httpserver.pid', 'maxthreads': None, 'softcron': False, 'server_name': 'Kserver', 'bpython': False, 'nogui': False, 'port': 8000, 'extcron': False, 'debuglevel': 30, 'test': None, 'folder': '/home/jpr/Source/web2py', 'config': '', 'import_models': False, 'winservice': '', 'shell': None, 'run': '', 'log_filename': 'httpserver.log', 'args': [''], 'socket_timeout': 5, 'ssl_ca_certificate': None, 'scheduler': None, 'profiler_filename': None, 'ssl_private_key': '', 'password': '<ask>', 'request_queue_size': 5, 'ssl_certificate': '', 'cronjob': False, 'numthreads': None, 'quiet': False, 'interfaces': None, 'minthreads': None, 'timeout': 10, 'plain': False, 'nobanner': False}>"
p2036
asbasbasbag57
(g73
g59
NtRp2037
(dp2038
g62
(dp2039
sg71
g1947
sg64
(lp2040
g57
(g78
g59
NtRp2041
(dp2042
g62
(dp2043
g82
g83
ssg71
g2037
sg64
(lp2044
g969
asbag57
(g78
g59
NtRp2045
(dp2046
g62
(dp2047
g89
g90
ssg71
g2037
sg64
(lp2048
S':'
asbag57
(g78
g59
NtRp2049
(dp2050
g62
(dp2051
sg71
g2037
sg64
(lp2052
g57
(g58
g59
NtRp2053
(dp2054
g62
(dp2055
g70
I4
ssg71
g2049
sg64
(lp2056
S'set([])'
p2057
asbasbasbag57
(g73
g59
NtRp2058
(dp2059
g62
(dp2060
sg71
g1947
sg64
(lp2061
g57
(g78
g59
NtRp2062
(dp2063
g62
(dp2064
g82
g83
ssg71
g2058
sg64
(lp2065
g991
asbag57
(g78
g59
NtRp2066
(dp2067
g62
(dp2068
g89
g90
ssg71
g2058
sg64
(lp2069
S':'
asbag57
(g78
g59
NtRp2070
(dp2071
g62
(dp2072
sg71
g2058
sg64
(lp2073
g57
(g58
g59
NtRp2074
(dp2075
g62
(dp2076
g70
I4
ssg71
g2070
sg64
(lp2077
g100
asbasbasbag57
(g73
g59
NtRp2078
(dp2079
g62
(dp2080
sg71
g1947
sg64
(lp2081
g57
(g78
g59
NtRp2082
(dp2083
g62
(dp2084
g82
g83
ssg71
g2078
sg64
(lp2085
g1012
asbag57
(g78
g59
NtRp2086
(dp2087
g62
(dp2088
g89
g90
ssg71
g2078
sg64
(lp2089
S':'
asbag57
(g78
g59
NtRp2090
(dp2091
g62
(dp2092
sg71
g2078
sg64
(lp2093
g57
(g58
g59
NtRp2094
(dp2095
g62
(dp2096
g70
I4
ssg71
g2090
sg64
(lp2097
g1025
asbasbasbag57
(g73
g59
NtRp2098
(dp2099
g62
(dp2100
sg71
g1947
sg64
(lp2101
g57
(g78
g59
NtRp2102
(dp2103
g62
(dp2104
g82
g83
ssg71
g2098
sg64
(lp2105
g1252
asbag57
(g78
g59
NtRp2106
(dp2107
g62
(dp2108
g89
g90
ssg71
g2098
sg64
(lp2109
S':'
asbag57
(g78
g59
NtRp2110
(dp2111
g62
(dp2112
sg71
g2098
sg64
(lp2113
g57
(g58
g59
NtRp2114
(dp2115
g62
(dp2116
g70
I4
ssg71
g2110
sg64
(lp2117
g100
asbasbasbag57
(g73
g59
NtRp2118
(dp2119
g62
(dp2120
sg71
g1947
sg64
(lp2121
g57
(g78
g59
NtRp2122
(dp2123
g62
(dp2124
g82
g83
ssg71
g2118
sg64
(lp2125
g1273
asbag57
(g78
g59
NtRp2126
(dp2127
g62
(dp2128
g89
g90
ssg71
g2118
sg64
(lp2129
S':'
asbag57
(g78
g59
NtRp2130
(dp2131
g62
(dp2132
sg71
g2118
sg64
(lp2133
g57
(g58
g59
NtRp2134
(dp2135
g62
(dp2136
g70
I4
ssg71
g2130
sg64
(lp2137
g100
asbasbasbag57
(g73
g59
NtRp2138
(dp2139
g62
(dp2140
sg71
g1947
sg64
(lp2141
g57
(g78
g59
NtRp2142
(dp2143
g62
(dp2144
g82
g83
ssg71
g2138
sg64
(lp2145
g1511
asbag57
(g78
g59
NtRp2146
(dp2147
g62
(dp2148
g89
g90
ssg71
g2138
sg64
(lp2149
S':'
asbag57
(g78
g59
NtRp2150
(dp2151
g62
(dp2152
sg71
g2138
sg64
(lp2153
g57
(g58
g59
NtRp2154
(dp2155
g62
(dp2156
g70
I4
ssg71
g2150
sg64
(lp2157
g1524
asbasbasbag57
(g73
g59
NtRp2158
(dp2159
g62
(dp2160
sg71
g1947
sg64
(lp2161
g57
(g78
g59
NtRp2162
(dp2163
g62
(dp2164
g82
g83
ssg71
g2158
sg64
(lp2165
g1554
asbag57
(g78
g59
NtRp2166
(dp2167
g62
(dp2168
g89
g90
ssg71
g2158
sg64
(lp2169
S':'
asbag57
(g78
g59
NtRp2170
(dp2171
g62
(dp2172
sg71
g2158
sg64
(lp2173
g57
(g58
g59
NtRp2174
(dp2175
g62
(dp2176
g70
I4
ssg71
g2170
sg64
(lp2177
g57
(g66
g59
NtRp2178
(dp2179
g62
(dp2180
g70
I3
ssg71
Nsg64
(lp2181
g57
(g73
g59
NtRp2182
(dp2183
g62
(dp2184
sg71
g2178
sg64
(lp2185
g57
(g78
g59
NtRp2186
(dp2187
g62
(dp2188
sg71
g2182
sg64
(lp2189
g57
(g58
g59
NtRp2190
(dp2191
g62
(dp2192
g70
I3
ssg71
g2186
sg64
(lp2193
S'1'
asbasbasbag57
(g73
g59
NtRp2194
(dp2195
g62
(dp2196
sg71
g2178
sg64
(lp2197
g57
(g78
g59
NtRp2198
(dp2199
g62
(dp2200
sg71
g2194
sg64
(lp2201
g57
(g58
g59
NtRp2202
(dp2203
g62
(dp2204
g70
I3
ssg71
g2198
sg64
(lp2205
S'99'
p2206
asbasbasbag57
(g73
g59
NtRp2207
(dp2208
g62
(dp2209
sg71
g2178
sg64
(lp2210
g57
(g78
g59
NtRp2211
(dp2212
g62
(dp2213
sg71
g2207
sg64
(lp2214
g57
(g58
g59
NtRp2215
(dp2216
g62
(dp2217
g70
I3
ssg71
g2211
sg64
(lp2218
S'7'
asbasbasbag57
(g73
g59
NtRp2219
(dp2220
g62
(dp2221
sg71
g2178
sg64
(lp2222
g57
(g78
g59
NtRp2223
(dp2224
g62
(dp2225
sg71
g2219
sg64
(lp2226
g57
(g58
g59
NtRp2227
(dp2228
g62
(dp2229
g70
I3
ssg71
g2223
sg64
(lp2230
S'datetime.datetime(2012, 3, 4, 22, 12, 8)'
p2231
asbasbasbag57
(g73
g59
NtRp2232
(dp2233
g62
(dp2234
sg71
g2178
sg64
(lp2235
g57
(g78
g59
NtRp2236
(dp2237
g62
(dp2238
sg71
g2232
sg64
(lp2239
g57
(g58
g59
NtRp2240
(dp2241
g62
(dp2242
g70
I3
ssg71
g2236
sg64
(lp2243
g1633
asbasbasbasbasbasbasbasbasbasbasbag57
(g73
g59
NtRp2244
(dp2245
g62
(dp2246
sg71
g67
sg64
(lp2247
g57
(g78
g59
NtRp2248
(dp2249
g62
(dp2250
g82
g83
ssg71
g2244
sg64
(lp2251
S'is_https'
p2252
asbag57
(g78
g59
NtRp2253
(dp2254
g62
(dp2255
g89
g90
ssg71
g2244
sg64
(lp2256
S':'
asbag57
(g78
g59
NtRp2257
(dp2258
g62
(dp2259
sg71
g2244
sg64
(lp2260
g57
(g58
g59
NtRp2261
(dp2262
g62
(dp2263
g70
I5
ssg71
g2257
sg64
(lp2264
g100
asbasbasbag57
(g73
g59
NtRp2265
(dp2266
g62
(dp2267
sg71
g67
sg64
(lp2268
g57
(g78
g59
NtRp2269
(dp2270
g62
(dp2271
g82
g83
ssg71
g2265
sg64
(lp2272
S'is_local'
p2273
asbag57
(g78
g59
NtRp2274
(dp2275
g62
(dp2276
g89
g90
ssg71
g2265
sg64
(lp2277
S':'
asbag57
(g78
g59
NtRp2278
(dp2279
g62
(dp2280
sg71
g2265
sg64
(lp2281
g57
(g58
g59
NtRp2282
(dp2283
g62
(dp2284
g70
I5
ssg71
g2278
sg64
(lp2285
g1742
asbasbasbag57
(g73
g59
NtRp2286
(dp2287
g62
(dp2288
sg71
g67
sg64
(lp2289
g57
(g78
g59
NtRp2290
(dp2291
g62
(dp2292
g82
g83
ssg71
g2286
sg64
(lp2293
S'is_restful'
p2294
asbag57
(g78
g59
NtRp2295
(dp2296
g62
(dp2297
g89
g90
ssg71
g2286
sg64
(lp2298
S':'
asbag57
(g78
g59
NtRp2299
(dp2300
g62
(dp2301
sg71
g2286
sg64
(lp2302
g57
(g58
g59
NtRp2303
(dp2304
g62
(dp2305
g70
I5
ssg71
g2299
sg64
(lp2306
g100
asbasbasbag57
(g73
g59
NtRp2307
(dp2308
g62
(dp2309
sg71
g67
sg64
(lp2310
g57
(g78
g59
NtRp2311
(dp2312
g62
(dp2313
g82
g83
ssg71
g2307
sg64
(lp2314
S'now'
p2315
asbag57
(g78
g59
NtRp2316
(dp2317
g62
(dp2318
g89
g90
ssg71
g2307
sg64
(lp2319
S':'
asbag57
(g78
g59
NtRp2320
(dp2321
g62
(dp2322
sg71
g2307
sg64
(lp2323
g57
(g58
g59
NtRp2324
(dp2325
g62
(dp2326
g70
I5
ssg71
g2320
sg64
(lp2327
S'datetime.datetime(2012, 7, 27, 16, 55, 54, 510490)'
p2328
asbasbasbag57
(g73
g59
NtRp2329
(dp2330
g62
(dp2331
sg71
g67
sg64
(lp2332
g57
(g78
g59
NtRp2333
(dp2334
g62
(dp2335
g82
g83
ssg71
g2329
sg64
(lp2336
S'post_vars'
p2337
asbag57
(g78
g59
NtRp2338
(dp2339
g62
(dp2340
g89
g90
ssg71
g2329
sg64
(lp2341
S':'
asbag57
(g78
g59
NtRp2342
(dp2343
g62
(dp2344
sg71
g2329
sg64
(lp2345
g57
(g58
g59
NtRp2346
(dp2347
g62
(dp2348
g70
I5
ssg71
g2342
sg64
(lp2349
g57
(g66
g59
NtRp2350
(dp2351
g62
(dp2352
g70
I4
ssg71
Nsg64
(lp2353
g57
(g73
g59
NtRp2354
(dp2355
g62
(dp2356
sg71
g2350
sg64
(lp2357
g57
(g78
g59
NtRp2358
(dp2359
g62
(dp2360
g82
g83
ssg71
g2354
sg64
(lp2361
S'description'
p2362
asbag57
(g78
g59
NtRp2363
(dp2364
g62
(dp2365
g89
g90
ssg71
g2354
sg64
(lp2366
S':'
asbag57
(g78
g59
NtRp2367
(dp2368
g62
(dp2369
sg71
g2354
sg64
(lp2370
g57
(g58
g59
NtRp2371
(dp2372
g62
(dp2373
g70
I4
ssg71
g2367
sg64
(lp2374
S'OSRAM LAMP E22R'
p2375
asbasbasbag57
(g73
g59
NtRp2376
(dp2377
g62
(dp2378
sg71
g2350
sg64
(lp2379
g57
(g78
g59
NtRp2380
(dp2381
g62
(dp2382
g82
g83
ssg71
g2376
sg64
(lp2383
S'gar_van'
p2384
asbag57
(g78
g59
NtRp2385
(dp2386
g62
(dp2387
g89
g90
ssg71
g2376
sg64
(lp2388
S':'
asbag57
(g78
g59
NtRp2389
(dp2390
g62
(dp2391
sg71
g2376
sg64
(lp2392
g57
(g58
g59
NtRp2393
(dp2394
g62
(dp2395
g70
I4
ssg71
g2389
sg64
(lp2396
S''
asbasbasbag57
(g73
g59
NtRp2397
(dp2398
g62
(dp2399
sg71
g2350
sg64
(lp2400
g57
(g78
g59
NtRp2401
(dp2402
g62
(dp2403
g82
g83
ssg71
g2397
sg64
(lp2404
S'grjr_van'
p2405
asbag57
(g78
g59
NtRp2406
(dp2407
g62
(dp2408
g89
g90
ssg71
g2397
sg64
(lp2409
S':'
asbag57
(g78
g59
NtRp2410
(dp2411
g62
(dp2412
sg71
g2397
sg64
(lp2413
g57
(g58
g59
NtRp2414
(dp2415
g62
(dp2416
g70
I4
ssg71
g2410
sg64
(lp2417
S''
asbasbasbag57
(g73
g59
NtRp2418
(dp2419
g62
(dp2420
sg71
g2350
sg64
(lp2421
g57
(g78
g59
NtRp2422
(dp2423
g62
(dp2424
g82
g83
ssg71
g2418
sg64
(lp2425
S'john_van'
p2426
asbag57
(g78
g59
NtRp2427
(dp2428
g62
(dp2429
g89
g90
ssg71
g2418
sg64
(lp2430
S':'
asbag57
(g78
g59
NtRp2431
(dp2432
g62
(dp2433
sg71
g2418
sg64
(lp2434
g57
(g58
g59
NtRp2435
(dp2436
g62
(dp2437
g70
I4
ssg71
g2431
sg64
(lp2438
S''
asbasbasbag57
(g73
g59
NtRp2439
(dp2440
g62
(dp2441
sg71
g2350
sg64
(lp2442
g57
(g78
g59
NtRp2443
(dp2444
g62
(dp2445
g82
g83
ssg71
g2439
sg64
(lp2446
S'josh_van'
p2447
asbag57
(g78
g59
NtRp2448
(dp2449
g62
(dp2450
g89
g90
ssg71
g2439
sg64
(lp2451
S':'
asbag57
(g78
g59
NtRp2452
(dp2453
g62
(dp2454
sg71
g2439
sg64
(lp2455
g57
(g58
g59
NtRp2456
(dp2457
g62
(dp2458
g70
I4
ssg71
g2452
sg64
(lp2459
S''
asbasbasbag57
(g73
g59
NtRp2460
(dp2461
g62
(dp2462
sg71
g2350
sg64
(lp2463
g57
(g78
g59
NtRp2464
(dp2465
g62
(dp2466
g82
g83
ssg71
g2460
sg64
(lp2467
S'manuf'
p2468
asbag57
(g78
g59
NtRp2469
(dp2470
g62
(dp2471
g89
g90
ssg71
g2460
sg64
(lp2472
S':'
asbag57
(g78
g59
NtRp2473
(dp2474
g62
(dp2475
sg71
g2460
sg64
(lp2476
g57
(g58
g59
NtRp2477
(dp2478
g62
(dp2479
g70
I4
ssg71
g2473
sg64
(lp2480
S'UED'
p2481
asbasbasbag57
(g73
g59
NtRp2482
(dp2483
g62
(dp2484
sg71
g2350
sg64
(lp2485
g57
(g78
g59
NtRp2486
(dp2487
g62
(dp2488
g82
g83
ssg71
g2482
sg64
(lp2489
S'partnum'
p2490
asbag57
(g78
g59
NtRp2491
(dp2492
g62
(dp2493
g89
g90
ssg71
g2482
sg64
(lp2494
S':'
asbag57
(g78
g59
NtRp2495
(dp2496
g62
(dp2497
sg71
g2482
sg64
(lp2498
g57
(g58
g59
NtRp2499
(dp2500
g62
(dp2501
g70
I4
ssg71
g2495
sg64
(lp2502
S'LAMP-14'
p2503
asbasbasbag57
(g73
g59
NtRp2504
(dp2505
g62
(dp2506
sg71
g2350
sg64
(lp2507
g57
(g78
g59
NtRp2508
(dp2509
g62
(dp2510
g82
g83
ssg71
g2504
sg64
(lp2511
S'ret_price'
p2512
asbag57
(g78
g59
NtRp2513
(dp2514
g62
(dp2515
g89
g90
ssg71
g2504
sg64
(lp2516
S':'
asbag57
(g78
g59
NtRp2517
(dp2518
g62
(dp2519
sg71
g2504
sg64
(lp2520
g57
(g58
g59
NtRp2521
(dp2522
g62
(dp2523
g70
I4
ssg71
g2517
sg64
(lp2524
S'150.00'
p2525
asbasbasbag57
(g73
g59
NtRp2526
(dp2527
g62
(dp2528
sg71
g2350
sg64
(lp2529
g57
(g78
g59
NtRp2530
(dp2531
g62
(dp2532
g82
g83
ssg71
g2526
sg64
(lp2533
S'shop'
p2534
asbag57
(g78
g59
NtRp2535
(dp2536
g62
(dp2537
g89
g90
ssg71
g2526
sg64
(lp2538
S':'
asbag57
(g78
g59
NtRp2539
(dp2540
g62
(dp2541
sg71
g2526
sg64
(lp2542
g57
(g58
g59
NtRp2543
(dp2544
g62
(dp2545
g70
I4
ssg71
g2539
sg64
(lp2546
S'2'
asbasbasbag57
(g73
g59
NtRp2547
(dp2548
g62
(dp2549
sg71
g2350
sg64
(lp2550
g57
(g78
g59
NtRp2551
(dp2552
g62
(dp2553
g82
g83
ssg71
g2547
sg64
(lp2554
S'whol_price'
p2555
asbag57
(g78
g59
NtRp2556
(dp2557
g62
(dp2558
g89
g90
ssg71
g2547
sg64
(lp2559
S':'
asbag57
(g78
g59
NtRp2560
(dp2561
g62
(dp2562
sg71
g2547
sg64
(lp2563
g57
(g58
g59
NtRp2564
(dp2565
g62
(dp2566
g70
I4
ssg71
g2560
sg64
(lp2567
S'80.00'
p2568
asbasbasbasbasbasbasbag57
(g73
g59
NtRp2569
(dp2570
g62
(dp2571
sg71
g67
sg64
(lp2572
g57
(g78
g59
NtRp2573
(dp2574
g62
(dp2575
g82
g83
ssg71
g2569
sg64
(lp2576
S'url'
p2577
asbag57
(g78
g59
NtRp2578
(dp2579
g62
(dp2580
g89
g90
ssg71
g2569
sg64
(lp2581
S':'
asbag57
(g78
g59
NtRp2582
(dp2583
g62
(dp2584
sg71
g2569
sg64
(lp2585
g57
(g58
g59
NtRp2586
(dp2587
g62
(dp2588
g70
I5
ssg71
g2582
sg64
(lp2589
S'/Inventory/qrinv/enter_inventory'
p2590
asbasbasbag57
(g73
g59
NtRp2591
(dp2592
g62
(dp2593
sg71
g67
sg64
(lp2594
g57
(g78
g59
NtRp2595
(dp2596
g62
(dp2597
g82
g83
ssg71
g2591
sg64
(lp2598
S'utcnow'
p2599
asbag57
(g78
g59
NtRp2600
(dp2601
g62
(dp2602
g89
g90
ssg71
g2591
sg64
(lp2603
S':'
asbag57
(g78
g59
NtRp2604
(dp2605
g62
(dp2606
sg71
g2591
sg64
(lp2607
g57
(g58
g59
NtRp2608
(dp2609
g62
(dp2610
g70
I5
ssg71
g2604
sg64
(lp2611
S'datetime.datetime(2012, 7, 27, 21, 55, 54, 510507)'
p2612
asbasbasbag57
(g73
g59
NtRp2613
(dp2614
g62
(dp2615
sg71
g67
sg64
(lp2616
g57
(g78
g59
NtRp2617
(dp2618
g62
(dp2619
g82
g83
ssg71
g2613
sg64
(lp2620
S'uuid'
p2621
asbag57
(g78
g59
NtRp2622
(dp2623
g62
(dp2624
g89
g90
ssg71
g2613
sg64
(lp2625
S':'
asbag57
(g78
g59
NtRp2626
(dp2627
g62
(dp2628
sg71
g2613
sg64
(lp2629
g57
(g58
g59
NtRp2630
(dp2631
g62
(dp2632
g70
I5
ssg71
g2626
sg64
(lp2633
S'Inventory/127.0.0.1.2012-07-27.16-55-54.e38fe4e3-5381-48aa-9d9f-8e7dbc4c0cca'
p2634
asbasbasbag57
(g73
g59
NtRp2635
(dp2636
g62
(dp2637
sg71
g67
sg64
(lp2638
g57
(g78
g59
NtRp2639
(dp2640
g62
(dp2641
g82
g83
ssg71
g2635
sg64
(lp2642
S'vars'
p2643
asbag57
(g78
g59
NtRp2644
(dp2645
g62
(dp2646
g89
g90
ssg71
g2635
sg64
(lp2647
S':'
asbag57
(g78
g59
NtRp2648
(dp2649
g62
(dp2650
sg71
g2635
sg64
(lp2651
g57
(g58
g59
NtRp2652
(dp2653
g62
(dp2654
g70
I5
ssg71
g2648
sg64
(lp2655
g57
(g66
g59
NtRp2656
(dp2657
g62
(dp2658
g70
I4
ssg71
Nsg64
(lp2659
g57
(g73
g59
NtRp2660
(dp2661
g62
(dp2662
sg71
g2656
sg64
(lp2663
g57
(g78
g59
NtRp2664
(dp2665
g62
(dp2666
g82
g83
ssg71
g2660
sg64
(lp2667
g2362
asbag57
(g78
g59
NtRp2668
(dp2669
g62
(dp2670
g89
g90
ssg71
g2660
sg64
(lp2671
S':'
asbag57
(g78
g59
NtRp2672
(dp2673
g62
(dp2674
sg71
g2660
sg64
(lp2675
g57
(g58
g59
NtRp2676
(dp2677
g62
(dp2678
g70
I4
ssg71
g2672
sg64
(lp2679
g2375
asbasbasbag57
(g73
g59
NtRp2680
(dp2681
g62
(dp2682
sg71
g2656
sg64
(lp2683
g57
(g78
g59
NtRp2684
(dp2685
g62
(dp2686
g82
g83
ssg71
g2680
sg64
(lp2687
g2384
asbag57
(g78
g59
NtRp2688
(dp2689
g62
(dp2690
g89
g90
ssg71
g2680
sg64
(lp2691
S':'
asbag57
(g78
g59
NtRp2692
(dp2693
g62
(dp2694
sg71
g2680
sg64
(lp2695
g57
(g58
g59
NtRp2696
(dp2697
g62
(dp2698
g70
I4
ssg71
g2692
sg64
(lp2699
S''
asbasbasbag57
(g73
g59
NtRp2700
(dp2701
g62
(dp2702
sg71
g2656
sg64
(lp2703
g57
(g78
g59
NtRp2704
(dp2705
g62
(dp2706
g82
g83
ssg71
g2700
sg64
(lp2707
g2405
asbag57
(g78
g59
NtRp2708
(dp2709
g62
(dp2710
g89
g90
ssg71
g2700
sg64
(lp2711
S':'
asbag57
(g78
g59
NtRp2712
(dp2713
g62
(dp2714
sg71
g2700
sg64
(lp2715
g57
(g58
g59
NtRp2716
(dp2717
g62
(dp2718
g70
I4
ssg71
g2712
sg64
(lp2719
S''
asbasbasbag57
(g73
g59
NtRp2720
(dp2721
g62
(dp2722
sg71
g2656
sg64
(lp2723
g57
(g78
g59
NtRp2724
(dp2725
g62
(dp2726
g82
g83
ssg71
g2720
sg64
(lp2727
g2426
asbag57
(g78
g59
NtRp2728
(dp2729
g62
(dp2730
g89
g90
ssg71
g2720
sg64
(lp2731
S':'
asbag57
(g78
g59
NtRp2732
(dp2733
g62
(dp2734
sg71
g2720
sg64
(lp2735
g57
(g58
g59
NtRp2736
(dp2737
g62
(dp2738
g70
I4
ssg71
g2732
sg64
(lp2739
S''
asbasbasbag57
(g73
g59
NtRp2740
(dp2741
g62
(dp2742
sg71
g2656
sg64
(lp2743
g57
(g78
g59
NtRp2744
(dp2745
g62
(dp2746
g82
g83
ssg71
g2740
sg64
(lp2747
g2447
asbag57
(g78
g59
NtRp2748
(dp2749
g62
(dp2750
g89
g90
ssg71
g2740
sg64
(lp2751
S':'
asbag57
(g78
g59
NtRp2752
(dp2753
g62
(dp2754
sg71
g2740
sg64
(lp2755
g57
(g58
g59
NtRp2756
(dp2757
g62
(dp2758
g70
I4
ssg71
g2752
sg64
(lp2759
S''
asbasbasbag57
(g73
g59
NtRp2760
(dp2761
g62
(dp2762
sg71
g2656
sg64
(lp2763
g57
(g78
g59
NtRp2764
(dp2765
g62
(dp2766
g82
g83
ssg71
g2760
sg64
(lp2767
g2468
asbag57
(g78
g59
NtRp2768
(dp2769
g62
(dp2770
g89
g90
ssg71
g2760
sg64
(lp2771
S':'
asbag57
(g78
g59
NtRp2772
(dp2773
g62
(dp2774
sg71
g2760
sg64
(lp2775
g57
(g58
g59
NtRp2776
(dp2777
g62
(dp2778
g70
I4
ssg71
g2772
sg64
(lp2779
g2481
asbasbasbag57
(g73
g59
NtRp2780
(dp2781
g62
(dp2782
sg71
g2656
sg64
(lp2783
g57
(g78
g59
NtRp2784
(dp2785
g62
(dp2786
g82
g83
ssg71
g2780
sg64
(lp2787
g2490
asbag57
(g78
g59
NtRp2788
(dp2789
g62
(dp2790
g89
g90
ssg71
g2780
sg64
(lp2791
S':'
asbag57
(g78
g59
NtRp2792
(dp2793
g62
(dp2794
sg71
g2780
sg64
(lp2795
g57
(g58
g59
NtRp2796
(dp2797
g62
(dp2798
g70
I4
ssg71
g2792
sg64
(lp2799
g2503
asbasbasbag57
(g73
g59
NtRp2800
(dp2801
g62
(dp2802
sg71
g2656
sg64
(lp2803
g57
(g78
g59
NtRp2804
(dp2805
g62
(dp2806
g82
g83
ssg71
g2800
sg64
(lp2807
g2512
asbag57
(g78
g59
NtRp2808
(dp2809
g62
(dp2810
g89
g90
ssg71
g2800
sg64
(lp2811
S':'
asbag57
(g78
g59
NtRp2812
(dp2813
g62
(dp2814
sg71
g2800
sg64
(lp2815
g57
(g58
g59
NtRp2816
(dp2817
g62
(dp2818
g70
I4
ssg71
g2812
sg64
(lp2819
g2525
asbasbasbag57
(g73
g59
NtRp2820
(dp2821
g62
(dp2822
sg71
g2656
sg64
(lp2823
g57
(g78
g59
NtRp2824
(dp2825
g62
(dp2826
g82
g83
ssg71
g2820
sg64
(lp2827
g2534
asbag57
(g78
g59
NtRp2828
(dp2829
g62
(dp2830
g89
g90
ssg71
g2820
sg64
(lp2831
S':'
asbag57
(g78
g59
NtRp2832
(dp2833
g62
(dp2834
sg71
g2820
sg64
(lp2835
g57
(g58
g59
NtRp2836
(dp2837
g62
(dp2838
g70
I4
ssg71
g2832
sg64
(lp2839
S'2'
asbasbasbag57
(g73
g59
NtRp2840
(dp2841
g62
(dp2842
sg71
g2656
sg64
(lp2843
g57
(g78
g59
NtRp2844
(dp2845
g62
(dp2846
g82
g83
ssg71
g2840
sg64
(lp2847
g2555
asbag57
(g78
g59
NtRp2848
(dp2849
g62
(dp2850
g89
g90
ssg71
g2840
sg64
(lp2851
S':'
asbag57
(g78
g59
NtRp2852
(dp2853
g62
(dp2854
sg71
g2840
sg64
(lp2855
g57
(g58
g59
NtRp2856
(dp2857
g62
(dp2858
g70
I4
ssg71
g2852
sg64
(lp2859
g2568
asbasbasbasbasbasbasbag57
(g73
g59
NtRp2860
(dp2861
g62
(dp2862
sg71
g67
sg64
(lp2863
g57
(g78
g59
NtRp2864
(dp2865
g62
(dp2866
g82
g83
ssg71
g2860
sg64
(lp2867
S'wsgi'
p2868
asbag57
(g78
g59
NtRp2869
(dp2870
g62
(dp2871
g89
g90
ssg71
g2860
sg64
(lp2872
S':'
asbag57
(g78
g59
NtRp2873
(dp2874
g62
(dp2875
sg71
g2860
sg64
(lp2876
g57
(g58
g59
NtRp2877
(dp2878
g62
(dp2879
g70
I5
ssg71
g2873
sg64
(lp2880
g57
(g66
g59
NtRp2881
(dp2882
g62
(dp2883
g70
I4
ssg71
Nsg64
(lp2884
g57
(g73
g59
NtRp2885
(dp2886
g62
(dp2887
sg71
g2881
sg64
(lp2888
g57
(g78
g59
NtRp2889
(dp2890
g62
(dp2891
g82
g83
ssg71
g2885
sg64
(lp2892
S'environ'
p2893
asbag57
(g78
g59
NtRp2894
(dp2895
g62
(dp2896
g89
g90
ssg71
g2885
sg64
(lp2897
S':'
asbag57
(g78
g59
NtRp2898
(dp2899
g62
(dp2900
sg71
g2885
sg64
(lp2901
g57
(g58
g59
NtRp2902
(dp2903
g62
(dp2904
g70
I4
ssg71
g2898
sg64
(lp2905
g57
(g66
g59
NtRp2906
(dp2907
g62
(dp2908
g70
I3
ssg71
Nsg64
(lp2909
g57
(g73
g59
NtRp2910
(dp2911
g62
(dp2912
sg71
g2906
sg64
(lp2913
g57
(g78
g59
NtRp2914
(dp2915
g62
(dp2916
g82
g83
ssg71
g2910
sg64
(lp2917
S'CONTENT_LENGTH'
p2918
asbag57
(g78
g59
NtRp2919
(dp2920
g62
(dp2921
g89
g90
ssg71
g2910
sg64
(lp2922
S':'
asbag57
(g78
g59
NtRp2923
(dp2924
g62
(dp2925
sg71
g2910
sg64
(lp2926
g57
(g58
g59
NtRp2927
(dp2928
g62
(dp2929
g70
I3
ssg71
g2923
sg64
(lp2930
g938
asbasbasbag57
(g73
g59
NtRp2931
(dp2932
g62
(dp2933
sg71
g2906
sg64
(lp2934
g57
(g78
g59
NtRp2935
(dp2936
g62
(dp2937
g82
g83
ssg71
g2931
sg64
(lp2938
S'CONTENT_TYPE'
p2939
asbag57
(g78
g59
NtRp2940
(dp2941
g62
(dp2942
g89
g90
ssg71
g2931
sg64
(lp2943
S':'
asbag57
(g78
g59
NtRp2944
(dp2945
g62
(dp2946
sg71
g2931
sg64
(lp2947
g57
(g58
g59
NtRp2948
(dp2949
g62
(dp2950
g70
I3
ssg71
g2944
sg64
(lp2951
g960
asbasbasbag57
(g73
g59
NtRp2952
(dp2953
g62
(dp2954
sg71
g2906
sg64
(lp2955
g57
(g78
g59
NtRp2956
(dp2957
g62
(dp2958
g82
g83
ssg71
g2952
sg64
(lp2959
S'HTTP_ACCEPT'
p2960
asbag57
(g78
g59
NtRp2961
(dp2962
g62
(dp2963
g89
g90
ssg71
g2952
sg64
(lp2964
S':'
asbag57
(g78
g59
NtRp2965
(dp2966
g62
(dp2967
sg71
g2952
sg64
(lp2968
g57
(g58
g59
NtRp2969
(dp2970
g62
(dp2971
g70
I3
ssg71
g2965
sg64
(lp2972
g1047
asbasbasbag57
(g73
g59
NtRp2973
(dp2974
g62
(dp2975
sg71
g2906
sg64
(lp2976
g57
(g78
g59
NtRp2977
(dp2978
g62
(dp2979
g82
g83
ssg71
g2973
sg64
(lp2980
S'HTTP_ACCEPT_ENCODING'
p2981
asbag57
(g78
g59
NtRp2982
(dp2983
g62
(dp2984
g89
g90
ssg71
g2973
sg64
(lp2985
S':'
asbag57
(g78
g59
NtRp2986
(dp2987
g62
(dp2988
sg71
g2973
sg64
(lp2989
g57
(g58
g59
NtRp2990
(dp2991
g62
(dp2992
g70
I3
ssg71
g2986
sg64
(lp2993
g1069
asbasbasbag57
(g73
g59
NtRp2994
(dp2995
g62
(dp2996
sg71
g2906
sg64
(lp2997
g57
(g78
g59
NtRp2998
(dp2999
g62
(dp3000
g82
g83
ssg71
g2994
sg64
(lp3001
S'HTTP_ACCEPT_LANGUAGE'
p3002
asbag57
(g78
g59
NtRp3003
(dp3004
g62
(dp3005
g89
g90
ssg71
g2994
sg64
(lp3006
S':'
asbag57
(g78
g59
NtRp3007
(dp3008
g62
(dp3009
sg71
g2994
sg64
(lp3010
g57
(g58
g59
NtRp3011
(dp3012
g62
(dp3013
g70
I3
ssg71
g3007
sg64
(lp3014
g1091
asbasbasbag57
(g73
g59
NtRp3015
(dp3016
g62
(dp3017
sg71
g2906
sg64
(lp3018
g57
(g78
g59
NtRp3019
(dp3020
g62
(dp3021
g82
g83
ssg71
g3015
sg64
(lp3022
S'HTTP_CONNECTION'
p3023
asbag57
(g78
g59
NtRp3024
(dp3025
g62
(dp3026
g89
g90
ssg71
g3015
sg64
(lp3027
S':'
asbag57
(g78
g59
NtRp3028
(dp3029
g62
(dp3030
sg71
g3015
sg64
(lp3031
g57
(g58
g59
NtRp3032
(dp3033
g62
(dp3034
g70
I3
ssg71
g3028
sg64
(lp3035
g1113
asbasbasbag57
(g73
g59
NtRp3036
(dp3037
g62
(dp3038
sg71
g2906
sg64
(lp3039
g57
(g78
g59
NtRp3040
(dp3041
g62
(dp3042
g82
g83
ssg71
g3036
sg64
(lp3043
S'HTTP_CONTENT_LENGTH'
p3044
asbag57
(g78
g59
NtRp3045
(dp3046
g62
(dp3047
g89
g90
ssg71
g3036
sg64
(lp3048
S':'
asbag57
(g78
g59
NtRp3049
(dp3050
g62
(dp3051
sg71
g3036
sg64
(lp3052
g57
(g58
g59
NtRp3053
(dp3054
g62
(dp3055
g70
I3
ssg71
g3049
sg64
(lp3056
g938
asbasbasbag57
(g73
g59
NtRp3057
(dp3058
g62
(dp3059
sg71
g2906
sg64
(lp3060
g57
(g78
g59
NtRp3061
(dp3062
g62
(dp3063
g82
g83
ssg71
g3057
sg64
(lp3064
S'HTTP_CONTENT_TYPE'
p3065
asbag57
(g78
g59
NtRp3066
(dp3067
g62
(dp3068
g89
g90
ssg71
g3057
sg64
(lp3069
S':'
asbag57
(g78
g59
NtRp3070
(dp3071
g62
(dp3072
sg71
g3057
sg64
(lp3073
g57
(g58
g59
NtRp3074
(dp3075
g62
(dp3076
g70
I3
ssg71
g3070
sg64
(lp3077
g960
asbasbasbag57
(g73
g59
NtRp3078
(dp3079
g62
(dp3080
sg71
g2906
sg64
(lp3081
g57
(g78
g59
NtRp3082
(dp3083
g62
(dp3084
g82
g83
ssg71
g3078
sg64
(lp3085
S'HTTP_COOKIE'
p3086
asbag57
(g78
g59
NtRp3087
(dp3088
g62
(dp3089
g89
g90
ssg71
g3078
sg64
(lp3090
S':'
asbag57
(g78
g59
NtRp3091
(dp3092
g62
(dp3093
sg71
g3078
sg64
(lp3094
g57
(g58
g59
NtRp3095
(dp3096
g62
(dp3097
g70
I3
ssg71
g3091
sg64
(lp3098
g1177
asbasbasbag57
(g73
g59
NtRp3099
(dp3100
g62
(dp3101
sg71
g2906
sg64
(lp3102
g57
(g78
g59
NtRp3103
(dp3104
g62
(dp3105
g82
g83
ssg71
g3099
sg64
(lp3106
S'HTTP_HOST'
p3107
asbag57
(g78
g59
NtRp3108
(dp3109
g62
(dp3110
g89
g90
ssg71
g3099
sg64
(lp3111
S':'
asbag57
(g78
g59
NtRp3112
(dp3113
g62
(dp3114
sg71
g3099
sg64
(lp3115
g57
(g58
g59
NtRp3116
(dp3117
g62
(dp3118
g70
I3
ssg71
g3112
sg64
(lp3119
g1199
asbasbasbag57
(g73
g59
NtRp3120
(dp3121
g62
(dp3122
sg71
g2906
sg64
(lp3123
g57
(g78
g59
NtRp3124
(dp3125
g62
(dp3126
g82
g83
ssg71
g3120
sg64
(lp3127
S'HTTP_REFERER'
p3128
asbag57
(g78
g59
NtRp3129
(dp3130
g62
(dp3131
g89
g90
ssg71
g3120
sg64
(lp3132
S':'
asbag57
(g78
g59
NtRp3133
(dp3134
g62
(dp3135
sg71
g3120
sg64
(lp3136
g57
(g58
g59
NtRp3137
(dp3138
g62
(dp3139
g70
I3
ssg71
g3133
sg64
(lp3140
g1221
asbasbasbag57
(g73
g59
NtRp3141
(dp3142
g62
(dp3143
sg71
g2906
sg64
(lp3144
g57
(g78
g59
NtRp3145
(dp3146
g62
(dp3147
g82
g83
ssg71
g3141
sg64
(lp3148
S'HTTP_USER_AGENT'
p3149
asbag57
(g78
g59
NtRp3150
(dp3151
g62
(dp3152
g89
g90
ssg71
g3141
sg64
(lp3153
S':'
asbag57
(g78
g59
NtRp3154
(dp3155
g62
(dp3156
sg71
g3141
sg64
(lp3157
g57
(g58
g59
NtRp3158
(dp3159
g62
(dp3160
g70
I3
ssg71
g3154
sg64
(lp3161
g1243
asbasbasbag57
(g73
g59
NtRp3162
(dp3163
g62
(dp3164
sg71
g2906
sg64
(lp3165
g57
(g78
g59
NtRp3166
(dp3167
g62
(dp3168
g82
g83
ssg71
g3162
sg64
(lp3169
S'PATH_INFO'
p3170
asbag57
(g78
g59
NtRp3171
(dp3172
g62
(dp3173
g89
g90
ssg71
g3162
sg64
(lp3174
S':'
asbag57
(g78
g59
NtRp3175
(dp3176
g62
(dp3177
sg71
g3162
sg64
(lp3178
g57
(g58
g59
NtRp3179
(dp3180
g62
(dp3181
g70
I3
ssg71
g3175
sg64
(lp3182
g1307
asbasbasbag57
(g73
g59
NtRp3183
(dp3184
g62
(dp3185
sg71
g2906
sg64
(lp3186
g57
(g78
g59
NtRp3187
(dp3188
g62
(dp3189
g82
g83
ssg71
g3183
sg64
(lp3190
S'QUERY_STRING'
p3191
asbag57
(g78
g59
NtRp3192
(dp3193
g62
(dp3194
g89
g90
ssg71
g3183
sg64
(lp3195
S':'
asbag57
(g78
g59
NtRp3196
(dp3197
g62
(dp3198
sg71
g3183
sg64
(lp3199
g57
(g58
g59
NtRp3200
(dp3201
g62
(dp3202
g70
I3
ssg71
g3196
sg64
(lp3203
S''
asbasbasbag57
(g73
g59
NtRp3204
(dp3205
g62
(dp3206
sg71
g2906
sg64
(lp3207
g57
(g78
g59
NtRp3208
(dp3209
g62
(dp3210
g82
g83
ssg71
g3204
sg64
(lp3211
S'REMOTE_ADDR'
p3212
asbag57
(g78
g59
NtRp3213
(dp3214
g62
(dp3215
g89
g90
ssg71
g3204
sg64
(lp3216
S':'
asbag57
(g78
g59
NtRp3217
(dp3218
g62
(dp3219
sg71
g3204
sg64
(lp3220
g57
(g58
g59
NtRp3221
(dp3222
g62
(dp3223
g70
I3
ssg71
g3217
sg64
(lp3224
g190
asbasbasbag57
(g73
g59
NtRp3225
(dp3226
g62
(dp3227
sg71
g2906
sg64
(lp3228
g57
(g78
g59
NtRp3229
(dp3230
g62
(dp3231
g82
g83
ssg71
g3225
sg64
(lp3232
S'REMOTE_PORT'
p3233
asbag57
(g78
g59
NtRp3234
(dp3235
g62
(dp3236
g89
g90
ssg71
g3225
sg64
(lp3237
S':'
asbag57
(g78
g59
NtRp3238
(dp3239
g62
(dp3240
sg71
g3225
sg64
(lp3241
g57
(g58
g59
NtRp3242
(dp3243
g62
(dp3244
g70
I3
ssg71
g3238
sg64
(lp3245
g1371
asbasbasbag57
(g73
g59
NtRp3246
(dp3247
g62
(dp3248
sg71
g2906
sg64
(lp3249
g57
(g78
g59
NtRp3250
(dp3251
g62
(dp3252
g82
g83
ssg71
g3246
sg64
(lp3253
S'REQUEST_METHOD'
p3254
asbag57
(g78
g59
NtRp3255
(dp3256
g62
(dp3257
g89
g90
ssg71
g3246
sg64
(lp3258
S':'
asbag57
(g78
g59
NtRp3259
(dp3260
g62
(dp3261
sg71
g3246
sg64
(lp3262
g57
(g58
g59
NtRp3263
(dp3264
g62
(dp3265
g70
I3
ssg71
g3259
sg64
(lp3266
g1393
asbasbasbag57
(g73
g59
NtRp3267
(dp3268
g62
(dp3269
sg71
g2906
sg64
(lp3270
g57
(g78
g59
NtRp3271
(dp3272
g62
(dp3273
g82
g83
ssg71
g3267
sg64
(lp3274
S'SCRIPT_NAME'
p3275
asbag57
(g78
g59
NtRp3276
(dp3277
g62
(dp3278
g89
g90
ssg71
g3267
sg64
(lp3279
S':'
asbag57
(g78
g59
NtRp3280
(dp3281
g62
(dp3282
sg71
g3267
sg64
(lp3283
g57
(g58
g59
NtRp3284
(dp3285
g62
(dp3286
g70
I3
ssg71
g3280
sg64
(lp3287
S''
asbasbasbag57
(g73
g59
NtRp3288
(dp3289
g62
(dp3290
sg71
g2906
sg64
(lp3291
g57
(g78
g59
NtRp3292
(dp3293
g62
(dp3294
g82
g83
ssg71
g3288
sg64
(lp3295
S'SERVER_NAME'
p3296
asbag57
(g78
g59
NtRp3297
(dp3298
g62
(dp3299
g89
g90
ssg71
g3288
sg64
(lp3300
S':'
asbag57
(g78
g59
NtRp3301
(dp3302
g62
(dp3303
sg71
g3288
sg64
(lp3304
g57
(g58
g59
NtRp3305
(dp3306
g62
(dp3307
g70
I3
ssg71
g3301
sg64
(lp3308
g1436
asbasbasbag57
(g73
g59
NtRp3309
(dp3310
g62
(dp3311
sg71
g2906
sg64
(lp3312
g57
(g78
g59
NtRp3313
(dp3314
g62
(dp3315
g82
g83
ssg71
g3309
sg64
(lp3316
S'SERVER_PORT'
p3317
asbag57
(g78
g59
NtRp3318
(dp3319
g62
(dp3320
g89
g90
ssg71
g3309
sg64
(lp3321
S':'
asbag57
(g78
g59
NtRp3322
(dp3323
g62
(dp3324
sg71
g3309
sg64
(lp3325
g57
(g58
g59
NtRp3326
(dp3327
g62
(dp3328
g70
I3
ssg71
g3322
sg64
(lp3329
g1458
asbasbasbag57
(g73
g59
NtRp3330
(dp3331
g62
(dp3332
sg71
g2906
sg64
(lp3333
g57
(g78
g59
NtRp3334
(dp3335
g62
(dp3336
g82
g83
ssg71
g3330
sg64
(lp3337
S'SERVER_PROTOCOL'
p3338
asbag57
(g78
g59
NtRp3339
(dp3340
g62
(dp3341
g89
g90
ssg71
g3330
sg64
(lp3342
S':'
asbag57
(g78
g59
NtRp3343
(dp3344
g62
(dp3345
sg71
g3330
sg64
(lp3346
g57
(g58
g59
NtRp3347
(dp3348
g62
(dp3349
g70
I3
ssg71
g3343
sg64
(lp3350
g1480
asbasbasbag57
(g73
g59
NtRp3351
(dp3352
g62
(dp3353
sg71
g2906
sg64
(lp3354
g57
(g78
g59
NtRp3355
(dp3356
g62
(dp3357
g82
g83
ssg71
g3351
sg64
(lp3358
S'SERVER_SOFTWARE'
p3359
asbag57
(g78
g59
NtRp3360
(dp3361
g62
(dp3362
g89
g90
ssg71
g3351
sg64
(lp3363
S':'
asbag57
(g78
g59
NtRp3364
(dp3365
g62
(dp3366
sg71
g3351
sg64
(lp3367
g57
(g58
g59
NtRp3368
(dp3369
g62
(dp3370
g70
I3
ssg71
g3364
sg64
(lp3371
g1502
asbasbasbag57
(g73
g59
NtRp3372
(dp3373
g62
(dp3374
sg71
g2906
sg64
(lp3375
g57
(g78
g59
NtRp3376
(dp3377
g62
(dp3378
g82
g83
ssg71
g3372
sg64
(lp3379
S'wsgi.errors'
p3380
asbag57
(g78
g59
NtRp3381
(dp3382
g62
(dp3383
g89
g90
ssg71
g3372
sg64
(lp3384
S':'
asbag57
(g78
g59
NtRp3385
(dp3386
g62
(dp3387
sg71
g3372
sg64
(lp3388
g57
(g58
g59
NtRp3389
(dp3390
g62
(dp3391
g70
I3
ssg71
g3385
sg64
(lp3392
S"<open file '<stderr>', mode 'w' at 0xb782a0d0>"
p3393
asbasbasbag57
(g73
g59
NtRp3394
(dp3395
g62
(dp3396
sg71
g2906
sg64
(lp3397
g57
(g78
g59
NtRp3398
(dp3399
g62
(dp3400
g82
g83
ssg71
g3394
sg64
(lp3401
S'wsgi.file_wrapper'
p3402
asbag57
(g78
g59
NtRp3403
(dp3404
g62
(dp3405
g89
g90
ssg71
g3394
sg64
(lp3406
S':'
asbag57
(g78
g59
NtRp3407
(dp3408
g62
(dp3409
sg71
g3394
sg64
(lp3410
g57
(g58
g59
NtRp3411
(dp3412
g62
(dp3413
g70
I3
ssg71
g3407
sg64
(lp3414
S'<class wsgiref.util.FileWrapper at 0xa845dac>'
p3415
asbasbasbag57
(g73
g59
NtRp3416
(dp3417
g62
(dp3418
sg71
g2906
sg64
(lp3419
g57
(g78
g59
NtRp3420
(dp3421
g62
(dp3422
g82
g83
ssg71
g3416
sg64
(lp3423
S'wsgi.input'
p3424
asbag57
(g78
g59
NtRp3425
(dp3426
g62
(dp3427
g89
g90
ssg71
g3416
sg64
(lp3428
S':'
asbag57
(g78
g59
NtRp3429
(dp3430
g62
(dp3431
sg71
g3416
sg64
(lp3432
g57
(g58
g59
NtRp3433
(dp3434
g62
(dp3435
g70
I3
ssg71
g3429
sg64
(lp3436
S"<open file '<fdopen>', mode 'w+b' at 0xb12fee8>"
p3437
asbasbasbag57
(g73
g59
NtRp3438
(dp3439
g62
(dp3440
sg71
g2906
sg64
(lp3441
g57
(g78
g59
NtRp3442
(dp3443
g62
(dp3444
g82
g83
ssg71
g3438
sg64
(lp3445
S'wsgi.multiprocess'
p3446
asbag57
(g78
g59
NtRp3447
(dp3448
g62
(dp3449
g89
g90
ssg71
g3438
sg64
(lp3450
S':'
asbag57
(g78
g59
NtRp3451
(dp3452
g62
(dp3453
sg71
g3438
sg64
(lp3454
g57
(g58
g59
NtRp3455
(dp3456
g62
(dp3457
g70
I3
ssg71
g3451
sg64
(lp3458
g100
asbasbasbag57
(g73
g59
NtRp3459
(dp3460
g62
(dp3461
sg71
g2906
sg64
(lp3462
g57
(g78
g59
NtRp3463
(dp3464
g62
(dp3465
g82
g83
ssg71
g3459
sg64
(lp3466
S'wsgi.multithread'
p3467
asbag57
(g78
g59
NtRp3468
(dp3469
g62
(dp3470
g89
g90
ssg71
g3459
sg64
(lp3471
S':'
asbag57
(g78
g59
NtRp3472
(dp3473
g62
(dp3474
sg71
g3459
sg64
(lp3475
g57
(g58
g59
NtRp3476
(dp3477
g62
(dp3478
g70
I3
ssg71
g3472
sg64
(lp3479
g1742
asbasbasbag57
(g73
g59
NtRp3480
(dp3481
g62
(dp3482
sg71
g2906
sg64
(lp3483
g57
(g78
g59
NtRp3484
(dp3485
g62
(dp3486
g82
g83
ssg71
g3480
sg64
(lp3487
S'wsgi.run_once'
p3488
asbag57
(g78
g59
NtRp3489
(dp3490
g62
(dp3491
g89
g90
ssg71
g3480
sg64
(lp3492
S':'
asbag57
(g78
g59
NtRp3493
(dp3494
g62
(dp3495
sg71
g3480
sg64
(lp3496
g57
(g58
g59
NtRp3497
(dp3498
g62
(dp3499
g70
I3
ssg71
g3493
sg64
(lp3500
g100
asbasbasbag57
(g73
g59
NtRp3501
(dp3502
g62
(dp3503
sg71
g2906
sg64
(lp3504
g57
(g78
g59
NtRp3505
(dp3506
g62
(dp3507
g82
g83
ssg71
g3501
sg64
(lp3508
S'wsgi.url_scheme'
p3509
asbag57
(g78
g59
NtRp3510
(dp3511
g62
(dp3512
g89
g90
ssg71
g3501
sg64
(lp3513
S':'
asbag57
(g78
g59
NtRp3514
(dp3515
g62
(dp3516
sg71
g3501
sg64
(lp3517
g57
(g58
g59
NtRp3518
(dp3519
g62
(dp3520
g70
I3
ssg71
g3514
sg64
(lp3521
g1785
asbasbasbag57
(g73
g59
NtRp3522
(dp3523
g62
(dp3524
sg71
g2906
sg64
(lp3525
g57
(g78
g59
NtRp3526
(dp3527
g62
(dp3528
g82
g83
ssg71
g3522
sg64
(lp3529
S'wsgi.version'
p3530
asbag57
(g78
g59
NtRp3531
(dp3532
g62
(dp3533
g89
g90
ssg71
g3522
sg64
(lp3534
S':'
asbag57
(g78
g59
NtRp3535
(dp3536
g62
(dp3537
sg71
g3522
sg64
(lp3538
g57
(g58
g59
NtRp3539
(dp3540
g62
(dp3541
g70
I3
ssg71
g3535
sg64
(lp3542
S'1'
asbasbasbasbasbasbasbasbasbasbasbasbasbsS'frames'
p3543
(lp3544
(dp3545
S'file'
p3546
S'/home/jpr/Source/web2py/gluon/restricted.py'
p3547
sS'dump'
p3548
(dp3549
S'environment'
p3550
S"{'A': <class 'gluon.html.A'>, 'Auth': <class 'gluon.tools.Auth'>, 'B': <class 'gluon.html.B'>, 'BEAUTIFY': <class 'gluon.html.BEAUTIFY'>, 'BODY': <class 'gluon.html.BODY'>, 'BR': <class 'gluon.html.BR'>, 'BUTTON': <class 'gluon.html.BUTTON'>, 'CAT': <class 'gluon.html.CAT'>, 'CENTER': <class 'gluon.html.CENTER'>, 'CLEANUP': <class 'gluon.validators.CLEANUP'>, ...}"
p3551
sS'ccode'
p3552
S'<code object <module> at 0xafb5d58, file "/home/...ications/Inventory/controllers/qrinv.py", line 5>'
p3553
ssS'lnum'
p3554
I205
sS'lines'
p3555
(dp3556
I200
S'    try:'
p3557
sI201
S'        if type(code) == types.CodeType:'
p3558
sI202
S'            ccode = code'
p3559
sI203
S'        else:'
p3560
sI204
S'            ccode = compile2(code,layer)'
p3561
sI205
S'        exec ccode in environment'
p3562
sI206
S'    except HTTP:'
p3563
sI207
S'        raise'
p3564
sI208
S'    except RestrictedError:'
p3565
sI209
S'        # do not encapsulate (obfuscate) the original RestrictedError'
p3566
ssS'call'
p3567
S"(code='# QR inventory system\\n# 06/01/2012\\n# Joel Robins...response._vars=response._caller(enter_inventory)\\n', environment={'A': <class 'gluon.html.A'>, 'Auth': <class 'gluon.tools.Auth'>, 'B': <class 'gluon.html.B'>, 'BEAUTIFY': <class 'gluon.html.BEAUTIFY'>, 'BODY': <class 'gluon.html.BODY'>, 'BR': <class 'gluon.html.BR'>, 'BUTTON': <class 'gluon.html.BUTTON'>, 'CAT': <class 'gluon.html.CAT'>, 'CENTER': <class 'gluon.html.CENTER'>, 'CLEANUP': <class 'gluon.validators.CLEANUP'>, ...}, layer='/home/jpr/Source/web2py/applications/Inventory/controllers/qrinv.py')"
p3568
sS'func'
p3569
S'restricted'
p3570
sa(dp3571
g3546
S'/home/jpr/Source/web2py/applications/Inventory/controllers/qrinv.py'
p3572
sg3548
(dp3573
sg3554
I113
sg3555
(dp3574
I102
S'    db.invent.whol_price.writable = False'
p3575
sI103
S'    db.invent.ret_price.writable = False'
p3576
sI104
S'    crud.settings.update_deletable = False'
p3577
sI105
S'    if request.get_vars.partnum:'
p3578
sI106
S'        row = db(db.invent.partnum == request.get_vars.partnum).select().first()'
p3579
sI107
S'        return dict(total = row.total_stock,row=row, record=crud.update(db.invent, row.id) if row'
p3580
sI108
S"            else 'Part #%s not found' % request.get_vars.partnum)"
p3581
sI109
S'    else:'
p3582
sI110
S'        row = None'
p3583
sI111
S'        return dict(row=row, record="No part number. URL should read update_inventory?partnum=12345")'
p3584
ssg3567
S'()'
p3585
sg3569
S'<module>'
p3586
sa(dp3587
g3546
S'/home/jpr/Source/web2py/gluon/globals.py'
p3588
sg3548
(dp3589
S'self'
p3590
S'undefined'
p3591
sS'f'
S'<function enter_inventory>'
p3592
ssg3554
I173
sg3555
(dp3593
I168
S'        self.menu = []             # used by the default view layout'
p3594
sI169
S'        self.files = []            # used by web2py_ajax.html'
p3595
sI170
S'        self.generic_patterns = [] # patterns to allow generic views'
p3596
sI171
S"        self.delimiters = ('{{','}}')"
p3597
sI172
S'        self._vars = None'
p3598
sI173
S'        self._caller = lambda f: f()'
p3599
sI174
S'        self._view_environment = None'
p3600
sI175
S'        self._custom_commit = None'
p3601
sI176
S'        self._custom_rollback = None'
p3602
sI177
S''
ssg3567
S'(f=<function enter_inventory>)'
p3603
sg3569
S'<lambda>'
p3604
sa(dp3605
g3546
S'/home/jpr/Source/web2py/gluon/tools.py'
p3606
sg3548
(dp3607
S'action'
p3608
S'<function enter_inventory>'
p3609
sS'a'
S'()'
p3610
sS'b'
g45
ssg3554
I2575
sg3555
(dp3611
I2570
S'                    flag = condition'
p3612
sI2571
S'                if not flag:'
p3613
sI2572
S'                    current.session.flash = self.messages.access_denied'
p3614
sI2573
S'                    return call_or_redirect('
p3615
sI2574
S'                        self.settings.on_failed_authorization)'
p3616
sI2575
S'                return action(*a, **b)'
p3617
sI2576
S'            f.__doc__ = action.__doc__'
p3618
sI2577
S'            f.__name__ = action.__name__'
p3619
sI2578
S'            f.__dict__.update(action.__dict__)'
p3620
sI2579
S'            return f'
p3621
ssg3567
S'(*a=(), **b={})'
p3622
sg3569
S'f'
sa(dp3623
g3546
S'/home/jpr/Source/web2py/applications/Inventory/controllers/qrinv.py'
p3624
sg3548
(dp3625
S'global T'
p3626
S'<gluon.languages.translator object>'
p3627
sS'global set_record'
p3628
S'<function set_record>'
p3629
sS'message'
p3630
g3591
sS'form'
p3631
g3591
sS'onaccept'
p3632
g3591
ssg3554
I60
sg3555
(dp3633
I64
S'def confirm_inventory():'
p3634
sI55
S'    session.record = form.vars.id'
p3635
sI56
S''
sI57
S'@auth.requires_login()'
p3636
sI58
S'def enter_inventory():'
p3637
sI59
S"    form = crud.create(db.invent, next=URL('confirm_inventory'), \\"
p3638
sI60
S'        onaccept= lambda form : set_record(form), message=T("record created"))'
p3639
sI61
S'    return dict(form=form)'
p3640
sI62
S''
sI63
S'@auth.requires_login()'
p3641
ssg3567
S'()'
p3642
sg3569
S'enter_inventory'
p3643
sa(dp3644
g3546
S'/home/jpr/Source/web2py/gluon/tools.py'
p3645
sg3548
(dp3646
S'formname'
p3647
S'<function <lambda>>'
p3648
ssg3554
I3172
sg3555
(dp3649
I3168
S'            onaccept=onaccept,'
p3650
sI3169
S'            log=log,'
p3651
sI3170
S'            message=message,'
p3652
sI3171
S'            deletable=False,'
p3653
sI3172
S'            formname=formname,'
p3654
sI3173
S'            )'
p3655
sI3174
S''
sI3175
S'    def read(self, table, record):'
p3656
sI3176
S'        if not (isinstance(table, self.db.Table) or table in self.db.tables) \\'
p3657
sI3167
S'            onvalidation=onvalidation,'
p3658
ssg3567
S"(self=<gluon.tools.Crud object>, table=<Table {'manuf': <gluon.dal.Field object at 0xae...e, '_id': <gluon.dal.Field object at 0xaea6aac>}>, next='/Inventory/qrinv/confirm_inventory', onvalidation=<Storage {}>, onaccept=<function <lambda>>, log='Record %(id)s created', message=<lazyT 'record created'>, formname=<function <lambda>>)"
p3659
sg3569
S'create'
p3660
sa(dp3661
g3546
S'/home/jpr/Source/web2py/gluon/tools.py'
p3662
sg3548
(dp3663
S'detect_record_change'
p3664
g3591
sS'self'
p3665
S'<gluon.tools.Crud object>'
p3666
sS'self.settings'
p3667
S"<Storage {'showid': False, 'delete_onaccept': <S...ble': True, 'create_onvalidation': <Storage {}>}>"
p3668
sS'self.settings.detect_record_change'
p3669
g1742
ssg3554
I3115
sg3555
(dp3670
I3110
S'        if isinstance(onvalidation,StorageList):'
p3671
sI3111
S'            onvalidation=onvalidation.get(table._tablename, [])'
p3672
sI3112
S'        if form.accepts(request, _session, formname=_formname,'
p3673
sI3113
S'                        onvalidation=onvalidation, keepvalues=keepvalues,'
p3674
sI3114
S'                        hideerror=self.settings.hideerror,'
p3675
sI3115
S'                        detect_record_change = self.settings.detect_record_change):'
p3676
sI3116
S'            self.accepted = True'
p3677
sI3117
S'            response.flash = message'
p3678
sI3118
S'            if log:'
p3679
sI3119
S'                self.log_event(log, form.vars)'
p3680
ssg3567
S"(self=<gluon.tools.Crud object>, table=<Table {'manuf': <gluon.dal.Field object at 0xae...e, '_id': <gluon.dal.Field object at 0xaea6aac>}>, record=None, next='/Inventory/qrinv/confirm_inventory', onvalidation=[], onaccept=<function <lambda>>, ondelete=<Storage {}>, log='Record %(id)s created', message=<lazyT 'record created'>, deletable=False, formname=<function <lambda>>)"
p3681
sg3569
S'update'
p3682
sa(dp3683
g3546
S'/home/jpr/Source/web2py/gluon/sqlhtml.py'
p3684
sg3548
(dp3685
S'self.vars.id'
p3686
S'None'
p3687
sS'fields'
p3688
S"{'description': 'OSRAM LAMP E22R', 'gar_van': None, 'grjr_van': None, 'john_van': None, 'josh_van': None, 'locaton': '', 'manuf': 'UED', 'partnum': 'LAMP-14', 'ret_price': 150.0, 'shop': 2, ...}"
p3689
sS'self'
p3690
S'<gluon.sqlhtml.SQLFORM object>'
p3691
sS'self.vars'
p3692
S"<Storage {'manuf': 'UED', 'whol_price': 80.0, 'd...: 'LAMP-14', 'josh_van': None, 'grjr_van': None}>"
p3693
sS'self.table.insert'
p3694
S"<bound method Table.insert of <Table {'manuf': <..., '_id': <gluon.dal.Field object at 0xaea6aac>}>>"
p3695
sS'self.table'
p3696
S"<Table {'manuf': <gluon.dal.Field object at 0xae...e, '_id': <gluon.dal.Field object at 0xaea6aac>}>"
p3697
ssg3554
I1274
sg3555
(dp3698
I1269
S'                if record_id:'
p3699
sI1270
S'                    self.vars.id = self.record[self.id_field_name]'
p3700
sI1271
S'                    if fields:'
p3701
sI1272
S'                        self.table._db(self.table._id == self.record[self.id_field_name]).update(**fields)'
p3702
sI1273
S'                else:'
p3703
sI1274
S'                    self.vars.id = self.table.insert(**fields)'
p3704
sI1275
S'        self.accepted = ret'
p3705
sI1276
S'        return ret'
p3706
sI1277
S''
sI1278
S'    @staticmethod'
p3707
ssg3567
S"(self=<gluon.sqlhtml.SQLFORM object>, request_vars=<Storage {'manuf': 'UED', 'shop': '2', 'john_van...josh_van': '', 'description': 'OSRAM LAMP E22R'}>, session=<Storage {'_formkey[register]': 'c9685288-9661-4...59271094d', 'registration_key': '', 'id': 1}>}>}>, formname='invent/None', keepvalues=False, onvalidation=[], dbio=True, hideerror=False, detect_record_change=True)"
p3708
sg3569
S'accepts'
p3709
sa(dp3710
g3546
S'/home/jpr/Source/web2py/gluon/dal.py'
p3711
sg3548
(dp3712
S'self._listify'
p3713
S"<bound method Table._listify of <Table {'manuf':..., '_id': <gluon.dal.Field object at 0xaea6aac>}>>"
p3714
sS'fields'
p3715
S"{'description': 'OSRAM LAMP E22R', 'gar_van': None, 'grjr_van': None, 'john_van': None, 'josh_van': None, 'locaton': '', 'manuf': 'UED', 'partnum': 'LAMP-14', 'ret_price': 150.0, 'shop': 2, ...}"
p3716
sS'self'
p3717
S"<Table {'manuf': <gluon.dal.Field object at 0xae...e, '_id': <gluon.dal.Field object at 0xaea6aac>}>"
p3718
sS'self._db._adapter'
p3719
S'<gluon.dal.SQLiteAdapter object>'
p3720
sS'self._db._adapter.insert'
p3721
S'<bound method SQLiteAdapter.insert of <gluon.dal.SQLiteAdapter object>>'
p3722
sS'self._db'
p3723
S"<DAL {'auth_event': <Table {'origin': <gluon.dal...n_key': <gluon.dal.Field object at 0xae9a6ac>}>}>"
p3724
ssg3554
I6829
sg3555
(dp3725
I6824
S''
sI6825
S'    def _insert(self, **fields):'
p3726
sI6826
S'        return self._db._adapter._insert(self,self._listify(fields))'
p3727
sI6827
S''
sI6828
S'    def insert(self, **fields):'
p3728
sI6829
S'        return self._db._adapter.insert(self,self._listify(fields))'
p3729
sI6830
S''
sI6831
S'    def validate_and_insert(self,**fields):'
p3730
sI6832
S'        response = Row()'
p3731
sI6833
S'        response.errors = Row()'
p3732
ssg3567
S"(self=<Table {'manuf': <gluon.dal.Field object at 0xae...e, '_id': <gluon.dal.Field object at 0xaea6aac>}>, **fields={'description': 'OSRAM LAMP E22R', 'gar_van': None, 'grjr_van': None, 'john_van': None, 'josh_van': None, 'locaton': '', 'manuf': 'UED', 'partnum': 'LAMP-14', 'ret_price': 150.0, 'shop': 2, ...})"
p3733
sg3569
S'insert'
p3734
sa(dp3735
g3546
S'/home/jpr/Source/web2py/gluon/dal.py'
p3736
sg3548
(dp3737
S'new_fields.append'
p3738
S'<built-in method append of list object>'
p3739
sS'fields'
p3740
S"{'description': 'OSRAM LAMP E22R', 'gar_van': None, 'grjr_van': None, 'john_van': None, 'josh_van': None, 'locaton': '', 'manuf': 'UED', 'partnum': 'LAMP-14', 'ret_price': 150.0, 'shop': 2, ...}"
p3741
sS'ofield.compute'
p3742
S'<function <lambda>>'
p3743
sS'global Row'
p3744
S"<class 'gluon.dal.Row'>"
p3745
sS'ofield'
p3746
S'<gluon.dal.Field object>'
p3747
sS'new_fields'
p3748
S"[(<gluon.dal.Field object>, 'UED'), (<gluon.dal.Field object>, 80.0), (<gluon.dal.Field object>, 'OSRAM LAMP E22R'), (<gluon.dal.Field object>, 2), (<gluon.dal.Field object>, None), (<gluon.dal.Field object>, ''), (<gluon.dal.Field object>, 150.0), (<gluon.dal.Field object>, None), (<gluon.dal.Field object>, 'LAMP-14'), (<gluon.dal.Field object>, None), (<gluon.dal.Field object>, None)]"
p3749
ssg3554
I6818
sg3555
(dp3750
I6816
S'            if not ofield.name in new_fields_names and ofield.compute:'
p3751
sI6817
S'                try:'
p3752
sI6818
S'                    new_fields.append((ofield,ofield.compute(Row(fields))))'
p3753
sI6819
S'                except KeyError:'
p3754
sI6820
S'                    pass'
p3755
sI6821
S'            if not update and ofield.required and not ofield.name in new_fields_names:'
p3756
sI6822
S"                raise SyntaxError,'Table: missing required field: %s' % ofield.name"
p3757
sI6813
S'                elif update and not ofield.update is None:'
p3758
sI6814
S'                    new_fields.append((ofield,ofield.update))'
p3759
sI6815
S'        for ofield in self:'
p3760
ssg3567
S"(self=<Table {'manuf': <gluon.dal.Field object at 0xae...e, '_id': <gluon.dal.Field object at 0xaea6aac>}>, fields={'description': 'OSRAM LAMP E22R', 'gar_van': None, 'grjr_van': None, 'john_van': None, 'josh_van': None, 'locaton': '', 'manuf': 'UED', 'partnum': 'LAMP-14', 'ret_price': 150.0, 'shop': 2, ...}, update=False)"
p3761
sg3569
S'_listify'
p3762
sa(dp3763
g3546
S'/home/jpr/Source/web2py/applications/Inventory/models/inventory.py'
p3764
sg3548
(dp3765
S'global Field'
p3766
S"<class 'gluon.dal.Field'>"
p3767
sS'r'
S"<Row {'manuf': 'UED', 'whol_price': 80.0, 'descr...: 'LAMP-14', 'josh_van': None, 'grjr_van': None}>"
p3768
sS'compute'
p3769
g3591
ssg3554
I13
sg3555
(dp3770
I6
S"   Field('whol_price', 'double'),"
p3771
sI7
S"   Field('ret_price', 'double'),"
p3772
sI8
S"   Field('grjr_van', 'integer'),"
p3773
sI9
S"   Field('josh_van', 'integer'),"
p3774
sI10
S"   Field('gar_van', 'integer'),"
p3775
sI11
S"   Field('john_van', 'integer'),"
p3776
sI12
S"   Field('shop', 'integer'),"
p3777
sI13
S"   Field('total_stock',compute=lambda r: r['grjr_van'] + r['josh_van'] + r['gar_van'] + r['john_van'] + r['shop']),"
p3778
sI14
S"   Field('locaton')"
p3779
sI15
S'   )'
p3780
ssg3567
S"(r=<Row {'manuf': 'UED', 'whol_price': 80.0, 'descr...: 'LAMP-14', 'josh_van': None, 'grjr_van': None}>)"
p3781
sg3569
g3604
sasS'pyver'
p3782
S'Python 2.6.5: /usr/bin/python2'
p3783
sS'session'
p3784
g57
(g58
g59
NtRp3785
(dp3786
g62
(dp3787
sg64
(lp3788
g57
(g66
g59
NtRp3789
(dp3790
g62
(dp3791
g70
I5
ssg71
Nsg64
(lp3792
g57
(g73
g59
NtRp3793
(dp3794
g62
(dp3795
sg71
g3789
sg64
(lp3796
g57
(g78
g59
NtRp3797
(dp3798
g62
(dp3799
g82
g83
ssg71
g3793
sg64
(lp3800
S'auth'
p3801
asbag57
(g78
g59
NtRp3802
(dp3803
g62
(dp3804
g89
g90
ssg71
g3793
sg64
(lp3805
S':'
asbag57
(g78
g59
NtRp3806
(dp3807
g62
(dp3808
sg71
g3793
sg64
(lp3809
g57
(g58
g59
NtRp3810
(dp3811
g62
(dp3812
g70
I5
ssg71
g3806
sg64
(lp3813
g57
(g66
g59
NtRp3814
(dp3815
g62
(dp3816
g70
I4
ssg71
Nsg64
(lp3817
g57
(g73
g59
NtRp3818
(dp3819
g62
(dp3820
sg71
g3814
sg64
(lp3821
g57
(g78
g59
NtRp3822
(dp3823
g62
(dp3824
g82
g83
ssg71
g3818
sg64
(lp3825
S'expiration'
p3826
asbag57
(g78
g59
NtRp3827
(dp3828
g62
(dp3829
g89
g90
ssg71
g3818
sg64
(lp3830
S':'
asbag57
(g78
g59
NtRp3831
(dp3832
g62
(dp3833
sg71
g3818
sg64
(lp3834
g57
(g58
g59
NtRp3835
(dp3836
g62
(dp3837
g70
I4
ssg71
g3831
sg64
(lp3838
S'3600'
p3839
asbasbasbag57
(g73
g59
NtRp3840
(dp3841
g62
(dp3842
sg71
g3814
sg64
(lp3843
g57
(g78
g59
NtRp3844
(dp3845
g62
(dp3846
g82
g83
ssg71
g3840
sg64
(lp3847
S'hmac_key'
p3848
asbag57
(g78
g59
NtRp3849
(dp3850
g62
(dp3851
g89
g90
ssg71
g3840
sg64
(lp3852
S':'
asbag57
(g78
g59
NtRp3853
(dp3854
g62
(dp3855
sg71
g3840
sg64
(lp3856
g57
(g58
g59
NtRp3857
(dp3858
g62
(dp3859
g70
I4
ssg71
g3853
sg64
(lp3860
S'df95ffa0-fee1-43ae-945f-b25bcbc81e74'
p3861
asbasbasbag57
(g73
g59
NtRp3862
(dp3863
g62
(dp3864
sg71
g3814
sg64
(lp3865
g57
(g78
g59
NtRp3866
(dp3867
g62
(dp3868
g82
g83
ssg71
g3862
sg64
(lp3869
S'last_visit'
p3870
asbag57
(g78
g59
NtRp3871
(dp3872
g62
(dp3873
g89
g90
ssg71
g3862
sg64
(lp3874
S':'
asbag57
(g78
g59
NtRp3875
(dp3876
g62
(dp3877
sg71
g3862
sg64
(lp3878
g57
(g58
g59
NtRp3879
(dp3880
g62
(dp3881
g70
I4
ssg71
g3875
sg64
(lp3882
S'datetime.datetime(2012, 7, 27, 16, 55, 54, 510490)'
p3883
asbasbasbag57
(g73
g59
NtRp3884
(dp3885
g62
(dp3886
sg71
g3814
sg64
(lp3887
g57
(g78
g59
NtRp3888
(dp3889
g62
(dp3890
g82
g83
ssg71
g3884
sg64
(lp3891
S'user'
p3892
asbag57
(g78
g59
NtRp3893
(dp3894
g62
(dp3895
g89
g90
ssg71
g3884
sg64
(lp3896
S':'
asbag57
(g78
g59
NtRp3897
(dp3898
g62
(dp3899
sg71
g3884
sg64
(lp3900
g57
(g58
g59
NtRp3901
(dp3902
g62
(dp3903
g70
I4
ssg71
g3897
sg64
(lp3904
g57
(g66
g59
NtRp3905
(dp3906
g62
(dp3907
g70
I3
ssg71
Nsg64
(lp3908
g57
(g73
g59
NtRp3909
(dp3910
g62
(dp3911
sg71
g3905
sg64
(lp3912
g57
(g78
g59
NtRp3913
(dp3914
g62
(dp3915
g82
g83
ssg71
g3909
sg64
(lp3916
S'email'
p3917
asbag57
(g78
g59
NtRp3918
(dp3919
g62
(dp3920
g89
g90
ssg71
g3909
sg64
(lp3921
S':'
asbag57
(g78
g59
NtRp3922
(dp3923
g62
(dp3924
sg71
g3909
sg64
(lp3925
g57
(g58
g59
NtRp3926
(dp3927
g62
(dp3928
g70
I3
ssg71
g3922
sg64
(lp3929
S'laconic75@gmail.com'
p3930
asbasbasbag57
(g73
g59
NtRp3931
(dp3932
g62
(dp3933
sg71
g3905
sg64
(lp3934
g57
(g78
g59
NtRp3935
(dp3936
g62
(dp3937
g82
g83
ssg71
g3931
sg64
(lp3938
S'first_name'
p3939
asbag57
(g78
g59
NtRp3940
(dp3941
g62
(dp3942
g89
g90
ssg71
g3931
sg64
(lp3943
S':'
asbag57
(g78
g59
NtRp3944
(dp3945
g62
(dp3946
sg71
g3931
sg64
(lp3947
g57
(g58
g59
NtRp3948
(dp3949
g62
(dp3950
g70
I3
ssg71
g3944
sg64
(lp3951
S'Joel'
p3952
asbasbasbag57
(g73
g59
NtRp3953
(dp3954
g62
(dp3955
sg71
g3905
sg64
(lp3956
g57
(g78
g59
NtRp3957
(dp3958
g62
(dp3959
g82
g83
ssg71
g3953
sg64
(lp3960
S'id'
p3961
asbag57
(g78
g59
NtRp3962
(dp3963
g62
(dp3964
g89
g90
ssg71
g3953
sg64
(lp3965
S':'
asbag57
(g78
g59
NtRp3966
(dp3967
g62
(dp3968
sg71
g3953
sg64
(lp3969
g57
(g58
g59
NtRp3970
(dp3971
g62
(dp3972
g70
I3
ssg71
g3966
sg64
(lp3973
S'1'
asbasbasbag57
(g73
g59
NtRp3974
(dp3975
g62
(dp3976
sg71
g3905
sg64
(lp3977
g57
(g78
g59
NtRp3978
(dp3979
g62
(dp3980
g82
g83
ssg71
g3974
sg64
(lp3981
S'last_name'
p3982
asbag57
(g78
g59
NtRp3983
(dp3984
g62
(dp3985
g89
g90
ssg71
g3974
sg64
(lp3986
S':'
asbag57
(g78
g59
NtRp3987
(dp3988
g62
(dp3989
sg71
g3974
sg64
(lp3990
g57
(g58
g59
NtRp3991
(dp3992
g62
(dp3993
g70
I3
ssg71
g3987
sg64
(lp3994
S'Robinson'
p3995
asbasbasbag57
(g73
g59
NtRp3996
(dp3997
g62
(dp3998
sg71
g3905
sg64
(lp3999
g57
(g78
g59
NtRp4000
(dp4001
g62
(dp4002
g82
g83
ssg71
g3996
sg64
(lp4003
S'password'
p4004
asbag57
(g78
g59
NtRp4005
(dp4006
g62
(dp4007
g89
g90
ssg71
g3996
sg64
(lp4008
S':'
asbag57
(g78
g59
NtRp4009
(dp4010
g62
(dp4011
sg71
g3996
sg64
(lp4012
g57
(g58
g59
NtRp4013
(dp4014
g62
(dp4015
g70
I3
ssg71
g4009
sg64
(lp4016
S'12281423ee75128c1b1c0b059271094d'
p4017
asbasbasbag57
(g73
g59
NtRp4018
(dp4019
g62
(dp4020
sg71
g3905
sg64
(lp4021
g57
(g78
g59
NtRp4022
(dp4023
g62
(dp4024
g82
g83
ssg71
g4018
sg64
(lp4025
S'registration_id'
p4026
asbag57
(g78
g59
NtRp4027
(dp4028
g62
(dp4029
g89
g90
ssg71
g4018
sg64
(lp4030
S':'
asbag57
(g78
g59
NtRp4031
(dp4032
g62
(dp4033
sg71
g4018
sg64
(lp4034
g57
(g58
g59
NtRp4035
(dp4036
g62
(dp4037
g70
I3
ssg71
g4031
sg64
(lp4038
S''
asbasbasbag57
(g73
g59
NtRp4039
(dp4040
g62
(dp4041
sg71
g3905
sg64
(lp4042
g57
(g78
g59
NtRp4043
(dp4044
g62
(dp4045
g82
g83
ssg71
g4039
sg64
(lp4046
S'registration_key'
p4047
asbag57
(g78
g59
NtRp4048
(dp4049
g62
(dp4050
g89
g90
ssg71
g4039
sg64
(lp4051
S':'
asbag57
(g78
g59
NtRp4052
(dp4053
g62
(dp4054
sg71
g4039
sg64
(lp4055
g57
(g58
g59
NtRp4056
(dp4057
g62
(dp4058
g70
I3
ssg71
g4052
sg64
(lp4059
S''
asbasbasbag57
(g73
g59
NtRp4060
(dp4061
g62
(dp4062
sg71
g3905
sg64
(lp4063
g57
(g78
g59
NtRp4064
(dp4065
g62
(dp4066
g82
g83
ssg71
g4060
sg64
(lp4067
S'reset_password_key'
p4068
asbag57
(g78
g59
NtRp4069
(dp4070
g62
(dp4071
g89
g90
ssg71
g4060
sg64
(lp4072
S':'
asbag57
(g78
g59
NtRp4073
(dp4074
g62
(dp4075
sg71
g4060
sg64
(lp4076
g57
(g58
g59
NtRp4077
(dp4078
g62
(dp4079
g70
I3
ssg71
g4073
sg64
(lp4080
S''
asbasbasbasbasbasbasbag57
(g73
g59
NtRp4081
(dp4082
g62
(dp4083
sg71
g3814
sg64
(lp4084
g57
(g78
g59
NtRp4085
(dp4086
g62
(dp4087
g82
g83
ssg71
g4081
sg64
(lp4088
S'user_groups'
p4089
asbag57
(g78
g59
NtRp4090
(dp4091
g62
(dp4092
g89
g90
ssg71
g4081
sg64
(lp4093
S':'
asbag57
(g78
g59
NtRp4094
(dp4095
g62
(dp4096
sg71
g4081
sg64
(lp4097
g57
(g58
g59
NtRp4098
(dp4099
g62
(dp4100
g70
I4
ssg71
g4094
sg64
(lp4101
g57
(g66
g59
NtRp4102
(dp4103
g62
(dp4104
g70
I3
ssg71
Nsg64
(lp4105
g57
(g73
g59
NtRp4106
(dp4107
g62
(dp4108
sg71
g4102
sg64
(lp4109
g57
(g78
g59
NtRp4110
(dp4111
g62
(dp4112
g82
g83
ssg71
g4106
sg64
(lp4113
S'1'
asbag57
(g78
g59
NtRp4114
(dp4115
g62
(dp4116
g89
g90
ssg71
g4106
sg64
(lp4117
S':'
asbag57
(g78
g59
NtRp4118
(dp4119
g62
(dp4120
sg71
g4106
sg64
(lp4121
g57
(g58
g59
NtRp4122
(dp4123
g62
(dp4124
g70
I3
ssg71
g4118
sg64
(lp4125
S'user_1'
p4126
asbasbasbasbasbasbasbasbasbasbasbasbasbsS'etype'
p4127
S"<type 'exceptions.TypeError'>"
p4128
sS'date'
p4129
S'Fri Jul 27 16:55:54 2012'
p4130
sS'response'
p4131
g57
(g58
g59
NtRp4132
(dp4133
g62
(dp4134
sg64
(lp4135
g57
(g66
g59
NtRp4136
(dp4137
g62
(dp4138
g70
I5
ssg71
Nsg64
(lp4139
g57
(g73
g59
NtRp4140
(dp4141
g62
(dp4142
sg71
g4136
sg64
(lp4143
g57
(g78
g59
NtRp4144
(dp4145
g62
(dp4146
g82
g83
ssg71
g4140
sg64
(lp4147
g155
asbag57
(g78
g59
NtRp4148
(dp4149
g62
(dp4150
g89
g90
ssg71
g4140
sg64
(lp4151
S':'
asbag57
(g78
g59
NtRp4152
(dp4153
g62
(dp4154
sg71
g4140
sg64
(lp4155
g57
(g58
g59
NtRp4156
(dp4157
g62
(dp4158
g70
I5
ssg71
g4152
sg64
(lp4159
S'<cStringIO.StringO object at 0xb069e60>'
p4160
asbasbasbag57
(g73
g59
NtRp4161
(dp4162
g62
(dp4163
sg71
g4136
sg64
(lp4164
g57
(g78
g59
NtRp4165
(dp4166
g62
(dp4167
g82
g83
ssg71
g4161
sg64
(lp4168
g221
asbag57
(g78
g59
NtRp4169
(dp4170
g62
(dp4171
g89
g90
ssg71
g4161
sg64
(lp4172
S':'
asbag57
(g78
g59
NtRp4173
(dp4174
g62
(dp4175
sg71
g4161
sg64
(lp4176
g57
(g58
g59
NtRp4177
(dp4178
g62
(dp4179
g70
I5
ssg71
g4173
sg64
(lp4180
g57
(g66
g59
NtRp4181
(dp4182
g62
(dp4183
g70
I4
ssg71
Nsg64
(lp4184
g57
(g73
g59
NtRp4185
(dp4186
g62
(dp4187
sg71
g4181
sg64
(lp4188
g57
(g78
g59
NtRp4189
(dp4190
g62
(dp4191
g82
g83
ssg71
g4185
sg64
(lp4192
S'session_id_inventory'
p4193
asbag57
(g78
g59
NtRp4194
(dp4195
g62
(dp4196
g89
g90
ssg71
g4185
sg64
(lp4197
S':'
asbag57
(g78
g59
NtRp4198
(dp4199
g62
(dp4200
sg71
g4185
sg64
(lp4201
g57
(g58
g59
NtRp4202
(dp4203
g62
(dp4204
g70
I4
ssg71
g4198
sg64
(lp4205
g57
(g66
g59
NtRp4206
(dp4207
g62
(dp4208
g70
I3
ssg71
Nsg64
(lp4209
g57
(g73
g59
NtRp4210
(dp4211
g62
(dp4212
sg71
g4206
sg64
(lp4213
g57
(g78
g59
NtRp4214
(dp4215
g62
(dp4216
g82
g83
ssg71
g4210
sg64
(lp4217
g271
asbag57
(g78
g59
NtRp4218
(dp4219
g62
(dp4220
g89
g90
ssg71
g4210
sg64
(lp4221
S':'
asbag57
(g78
g59
NtRp4222
(dp4223
g62
(dp4224
sg71
g4210
sg64
(lp4225
g57
(g58
g59
NtRp4226
(dp4227
g62
(dp4228
g70
I3
ssg71
g4222
sg64
(lp4229
S''
asbasbasbag57
(g73
g59
NtRp4230
(dp4231
g62
(dp4232
sg71
g4206
sg64
(lp4233
g57
(g78
g59
NtRp4234
(dp4235
g62
(dp4236
g82
g83
ssg71
g4230
sg64
(lp4237
g292
asbag57
(g78
g59
NtRp4238
(dp4239
g62
(dp4240
g89
g90
ssg71
g4230
sg64
(lp4241
S':'
asbag57
(g78
g59
NtRp4242
(dp4243
g62
(dp4244
sg71
g4230
sg64
(lp4245
g57
(g58
g59
NtRp4246
(dp4247
g62
(dp4248
g70
I3
ssg71
g4242
sg64
(lp4249
S''
asbasbasbag57
(g73
g59
NtRp4250
(dp4251
g62
(dp4252
sg71
g4206
sg64
(lp4253
g57
(g78
g59
NtRp4254
(dp4255
g62
(dp4256
g82
g83
ssg71
g4250
sg64
(lp4257
g313
asbag57
(g78
g59
NtRp4258
(dp4259
g62
(dp4260
g89
g90
ssg71
g4250
sg64
(lp4261
S':'
asbag57
(g78
g59
NtRp4262
(dp4263
g62
(dp4264
sg71
g4250
sg64
(lp4265
g57
(g58
g59
NtRp4266
(dp4267
g62
(dp4268
g70
I3
ssg71
g4262
sg64
(lp4269
S''
asbasbasbag57
(g73
g59
NtRp4270
(dp4271
g62
(dp4272
sg71
g4206
sg64
(lp4273
g57
(g78
g59
NtRp4274
(dp4275
g62
(dp4276
g82
g83
ssg71
g4270
sg64
(lp4277
g334
asbag57
(g78
g59
NtRp4278
(dp4279
g62
(dp4280
g89
g90
ssg71
g4270
sg64
(lp4281
S':'
asbag57
(g78
g59
NtRp4282
(dp4283
g62
(dp4284
sg71
g4270
sg64
(lp4285
g57
(g58
g59
NtRp4286
(dp4287
g62
(dp4288
g70
I3
ssg71
g4282
sg64
(lp4289
S''
asbasbasbag57
(g73
g59
NtRp4290
(dp4291
g62
(dp4292
sg71
g4206
sg64
(lp4293
g57
(g78
g59
NtRp4294
(dp4295
g62
(dp4296
g82
g83
ssg71
g4290
sg64
(lp4297
g355
asbag57
(g78
g59
NtRp4298
(dp4299
g62
(dp4300
g89
g90
ssg71
g4290
sg64
(lp4301
S':'
asbag57
(g78
g59
NtRp4302
(dp4303
g62
(dp4304
sg71
g4290
sg64
(lp4305
g57
(g58
g59
NtRp4306
(dp4307
g62
(dp4308
g70
I3
ssg71
g4302
sg64
(lp4309
S''
asbasbasbag57
(g73
g59
NtRp4310
(dp4311
g62
(dp4312
sg71
g4206
sg64
(lp4313
g57
(g78
g59
NtRp4314
(dp4315
g62
(dp4316
g82
g83
ssg71
g4310
sg64
(lp4317
g376
asbag57
(g78
g59
NtRp4318
(dp4319
g62
(dp4320
g89
g90
ssg71
g4310
sg64
(lp4321
S':'
asbag57
(g78
g59
NtRp4322
(dp4323
g62
(dp4324
sg71
g4310
sg64
(lp4325
g57
(g58
g59
NtRp4326
(dp4327
g62
(dp4328
g70
I3
ssg71
g4322
sg64
(lp4329
S'/'
asbasbasbag57
(g73
g59
NtRp4330
(dp4331
g62
(dp4332
sg71
g4206
sg64
(lp4333
g57
(g78
g59
NtRp4334
(dp4335
g62
(dp4336
g82
g83
ssg71
g4330
sg64
(lp4337
g397
asbag57
(g78
g59
NtRp4338
(dp4339
g62
(dp4340
g89
g90
ssg71
g4330
sg64
(lp4341
S':'
asbag57
(g78
g59
NtRp4342
(dp4343
g62
(dp4344
sg71
g4330
sg64
(lp4345
g57
(g58
g59
NtRp4346
(dp4347
g62
(dp4348
g70
I3
ssg71
g4342
sg64
(lp4349
S''
asbasbasbag57
(g73
g59
NtRp4350
(dp4351
g62
(dp4352
sg71
g4206
sg64
(lp4353
g57
(g78
g59
NtRp4354
(dp4355
g62
(dp4356
g82
g83
ssg71
g4350
sg64
(lp4357
g418
asbag57
(g78
g59
NtRp4358
(dp4359
g62
(dp4360
g89
g90
ssg71
g4350
sg64
(lp4361
S':'
asbag57
(g78
g59
NtRp4362
(dp4363
g62
(dp4364
sg71
g4350
sg64
(lp4365
g57
(g58
g59
NtRp4366
(dp4367
g62
(dp4368
g70
I3
ssg71
g4362
sg64
(lp4369
S''
asbasbasbasbasbasbasbasbasbasbasbag57
(g73
g59
NtRp4370
(dp4371
g62
(dp4372
sg71
g4136
sg64
(lp4373
g57
(g78
g59
NtRp4374
(dp4375
g62
(dp4376
g82
g83
ssg71
g4370
sg64
(lp4377
S'delimiters'
p4378
asbag57
(g78
g59
NtRp4379
(dp4380
g62
(dp4381
g89
g90
ssg71
g4370
sg64
(lp4382
S':'
asbag57
(g78
g59
NtRp4383
(dp4384
g62
(dp4385
sg71
g4370
sg64
(lp4386
g57
(g58
g59
NtRp4387
(dp4388
g62
(dp4389
g70
I5
ssg71
g4383
sg64
(lp4390
g57
(g66
g59
NtRp4391
(dp4392
g62
(dp4393
g70
I4
ssg71
Nsg64
(lp4394
g57
(g73
g59
NtRp4395
(dp4396
g62
(dp4397
sg71
g4391
sg64
(lp4398
g57
(g78
g59
NtRp4399
(dp4400
g62
(dp4401
sg71
g4395
sg64
(lp4402
g57
(g58
g59
NtRp4403
(dp4404
g62
(dp4405
g70
I4
ssg71
g4399
sg64
(lp4406
S'{{'
p4407
asbasbasbag57
(g73
g59
NtRp4408
(dp4409
g62
(dp4410
sg71
g4391
sg64
(lp4411
g57
(g78
g59
NtRp4412
(dp4413
g62
(dp4414
sg71
g4408
sg64
(lp4415
g57
(g58
g59
NtRp4416
(dp4417
g62
(dp4418
g70
I4
ssg71
g4412
sg64
(lp4419
S'}}'
p4420
asbasbasbasbasbasbasbag57
(g73
g59
NtRp4421
(dp4422
g62
(dp4423
sg71
g4136
sg64
(lp4424
g57
(g78
g59
NtRp4425
(dp4426
g62
(dp4427
g82
g83
ssg71
g4421
sg64
(lp4428
S'files'
p4429
asbag57
(g78
g59
NtRp4430
(dp4431
g62
(dp4432
g89
g90
ssg71
g4421
sg64
(lp4433
S':'
asbag57
(g78
g59
NtRp4434
(dp4435
g62
(dp4436
sg71
g4421
sg64
(lp4437
g57
(g58
g59
NtRp4438
(dp4439
g62
(dp4440
g70
I5
ssg71
g4434
sg64
(lp4441
g57
(g66
g59
NtRp4442
(dp4443
g62
(dp4444
g70
I4
ssg71
Nsg64
(lp4445
sbasbasbasbag57
(g73
g59
NtRp4446
(dp4447
g62
(dp4448
sg71
g4136
sg64
(lp4449
g57
(g78
g59
NtRp4450
(dp4451
g62
(dp4452
g82
g83
ssg71
g4446
sg64
(lp4453
S'flash'
p4454
asbag57
(g78
g59
NtRp4455
(dp4456
g62
(dp4457
g89
g90
ssg71
g4446
sg64
(lp4458
S':'
asbag57
(g78
g59
NtRp4459
(dp4460
g62
(dp4461
sg71
g4446
sg64
(lp4462
g57
(g58
g59
NtRp4463
(dp4464
g62
(dp4465
g70
I5
ssg71
g4459
sg64
(lp4466
S''
asbasbasbag57
(g73
g59
NtRp4467
(dp4468
g62
(dp4469
sg71
g4136
sg64
(lp4470
g57
(g78
g59
NtRp4471
(dp4472
g62
(dp4473
g82
g83
ssg71
g4467
sg64
(lp4474
S'generic_patterns'
p4475
asbag57
(g78
g59
NtRp4476
(dp4477
g62
(dp4478
g89
g90
ssg71
g4467
sg64
(lp4479
S':'
asbag57
(g78
g59
NtRp4480
(dp4481
g62
(dp4482
sg71
g4467
sg64
(lp4483
g57
(g58
g59
NtRp4484
(dp4485
g62
(dp4486
g70
I5
ssg71
g4480
sg64
(lp4487
g57
(g66
g59
NtRp4488
(dp4489
g62
(dp4490
g70
I4
ssg71
Nsg64
(lp4491
g57
(g73
g59
NtRp4492
(dp4493
g62
(dp4494
sg71
g4488
sg64
(lp4495
g57
(g78
g59
NtRp4496
(dp4497
g62
(dp4498
sg71
g4492
sg64
(lp4499
g57
(g58
g59
NtRp4500
(dp4501
g62
(dp4502
g70
I4
ssg71
g4496
sg64
(lp4503
S'*'
asbasbasbasbasbasbasbag57
(g73
g59
NtRp4504
(dp4505
g62
(dp4506
sg71
g4136
sg64
(lp4507
g57
(g78
g59
NtRp4508
(dp4509
g62
(dp4510
g82
g83
ssg71
g4504
sg64
(lp4511
S'headers'
p4512
asbag57
(g78
g59
NtRp4513
(dp4514
g62
(dp4515
g89
g90
ssg71
g4504
sg64
(lp4516
S':'
asbag57
(g78
g59
NtRp4517
(dp4518
g62
(dp4519
sg71
g4504
sg64
(lp4520
g57
(g58
g59
NtRp4521
(dp4522
g62
(dp4523
g70
I5
ssg71
g4517
sg64
(lp4524
g57
(g66
g59
NtRp4525
(dp4526
g62
(dp4527
g70
I4
ssg71
Nsg64
(lp4528
g57
(g73
g59
NtRp4529
(dp4530
g62
(dp4531
sg71
g4525
sg64
(lp4532
g57
(g78
g59
NtRp4533
(dp4534
g62
(dp4535
g82
g83
ssg71
g4529
sg64
(lp4536
S'Cache-Control'
p4537
asbag57
(g78
g59
NtRp4538
(dp4539
g62
(dp4540
g89
g90
ssg71
g4529
sg64
(lp4541
S':'
asbag57
(g78
g59
NtRp4542
(dp4543
g62
(dp4544
sg71
g4529
sg64
(lp4545
g57
(g58
g59
NtRp4546
(dp4547
g62
(dp4548
g70
I4
ssg71
g4542
sg64
(lp4549
S'no-store, no-cache, must-revalidate, post-check=0, pre-check=0'
p4550
asbasbasbag57
(g73
g59
NtRp4551
(dp4552
g62
(dp4553
sg71
g4525
sg64
(lp4554
g57
(g78
g59
NtRp4555
(dp4556
g62
(dp4557
g82
g83
ssg71
g4551
sg64
(lp4558
S'Content-Type'
p4559
asbag57
(g78
g59
NtRp4560
(dp4561
g62
(dp4562
g89
g90
ssg71
g4551
sg64
(lp4563
S':'
asbag57
(g78
g59
NtRp4564
(dp4565
g62
(dp4566
sg71
g4551
sg64
(lp4567
g57
(g58
g59
NtRp4568
(dp4569
g62
(dp4570
g70
I4
ssg71
g4564
sg64
(lp4571
S'text/html; charset=utf-8'
p4572
asbasbasbag57
(g73
g59
NtRp4573
(dp4574
g62
(dp4575
sg71
g4525
sg64
(lp4576
g57
(g78
g59
NtRp4577
(dp4578
g62
(dp4579
g82
g83
ssg71
g4573
sg64
(lp4580
S'Expires'
p4581
asbag57
(g78
g59
NtRp4582
(dp4583
g62
(dp4584
g89
g90
ssg71
g4573
sg64
(lp4585
S':'
asbag57
(g78
g59
NtRp4586
(dp4587
g62
(dp4588
sg71
g4573
sg64
(lp4589
g57
(g58
g59
NtRp4590
(dp4591
g62
(dp4592
g70
I4
ssg71
g4586
sg64
(lp4593
S'Fri, 27 Jul 2012 21:55:54 GMT'
p4594
asbasbasbag57
(g73
g59
NtRp4595
(dp4596
g62
(dp4597
sg71
g4525
sg64
(lp4598
g57
(g78
g59
NtRp4599
(dp4600
g62
(dp4601
g82
g83
ssg71
g4595
sg64
(lp4602
S'Pragma'
p4603
asbag57
(g78
g59
NtRp4604
(dp4605
g62
(dp4606
g89
g90
ssg71
g4595
sg64
(lp4607
S':'
asbag57
(g78
g59
NtRp4608
(dp4609
g62
(dp4610
sg71
g4595
sg64
(lp4611
g57
(g58
g59
NtRp4612
(dp4613
g62
(dp4614
g70
I4
ssg71
g4608
sg64
(lp4615
S'no-cache'
p4616
asbasbasbag57
(g73
g59
NtRp4617
(dp4618
g62
(dp4619
sg71
g4525
sg64
(lp4620
g57
(g78
g59
NtRp4621
(dp4622
g62
(dp4623
g82
g83
ssg71
g4617
sg64
(lp4624
S'X-Powered-By'
p4625
asbag57
(g78
g59
NtRp4626
(dp4627
g62
(dp4628
g89
g90
ssg71
g4617
sg64
(lp4629
S':'
asbag57
(g78
g59
NtRp4630
(dp4631
g62
(dp4632
sg71
g4617
sg64
(lp4633
g57
(g58
g59
NtRp4634
(dp4635
g62
(dp4636
g70
I4
ssg71
g4630
sg64
(lp4637
S'web2py'
p4638
asbasbasbasbasbasbasbag57
(g73
g59
NtRp4639
(dp4640
g62
(dp4641
sg71
g4136
sg64
(lp4642
g57
(g78
g59
NtRp4643
(dp4644
g62
(dp4645
g82
g83
ssg71
g4639
sg64
(lp4646
S'menu'
p4647
asbag57
(g78
g59
NtRp4648
(dp4649
g62
(dp4650
g89
g90
ssg71
g4639
sg64
(lp4651
S':'
asbag57
(g78
g59
NtRp4652
(dp4653
g62
(dp4654
sg71
g4639
sg64
(lp4655
g57
(g58
g59
NtRp4656
(dp4657
g62
(dp4658
g70
I5
ssg71
g4652
sg64
(lp4659
g57
(g66
g59
NtRp4660
(dp4661
g62
(dp4662
g70
I4
ssg71
Nsg64
(lp4663
g57
(g73
g59
NtRp4664
(dp4665
g62
(dp4666
sg71
g4660
sg64
(lp4667
g57
(g78
g59
NtRp4668
(dp4669
g62
(dp4670
sg71
g4664
sg64
(lp4671
g57
(g58
g59
NtRp4672
(dp4673
g62
(dp4674
g70
I4
ssg71
g4668
sg64
(lp4675
g57
(g66
g59
NtRp4676
(dp4677
g62
(dp4678
g70
I3
ssg71
Nsg64
(lp4679
g57
(g73
g59
NtRp4680
(dp4681
g62
(dp4682
sg71
g4676
sg64
(lp4683
g57
(g78
g59
NtRp4684
(dp4685
g62
(dp4686
sg71
g4680
sg64
(lp4687
g57
(g58
g59
NtRp4688
(dp4689
g62
(dp4690
g70
I3
ssg71
g4684
sg64
(lp4691
cgluon.languages
lazyT_unpickle
p4692
(S's\x04\x00\x00\x00Home'
tRp4693
asbasbasbag57
(g73
g59
NtRp4694
(dp4695
g62
(dp4696
sg71
g4676
sg64
(lp4697
g57
(g78
g59
NtRp4698
(dp4699
g62
(dp4700
sg71
g4694
sg64
(lp4701
g57
(g58
g59
NtRp4702
(dp4703
g62
(dp4704
g70
I3
ssg71
g4698
sg64
(lp4705
g100
asbasbasbag57
(g73
g59
NtRp4706
(dp4707
g62
(dp4708
sg71
g4676
sg64
(lp4709
g57
(g78
g59
NtRp4710
(dp4711
g62
(dp4712
sg71
g4706
sg64
(lp4713
g57
(g58
g59
NtRp4714
(dp4715
g62
(dp4716
g70
I3
ssg71
g4710
sg64
(lp4717
S'/Inventory/default/index'
p4718
asbasbasbag57
(g73
g59
NtRp4719
(dp4720
g62
(dp4721
sg71
g4676
sg64
(lp4722
g57
(g78
g59
NtRp4723
(dp4724
g62
(dp4725
sg71
g4719
sg64
(lp4726
g57
(g58
g59
NtRp4727
(dp4728
g62
(dp4729
g70
I3
ssg71
g4723
sg64
(lp4730
g57
(g66
g59
NtRp4731
(dp4732
g62
(dp4733
g70
I2
ssg71
Nsg64
(lp4734
sbasbasbasbasbasbasbasbag57
(g73
g59
NtRp4735
(dp4736
g62
(dp4737
sg71
g4660
sg64
(lp4738
g57
(g78
g59
NtRp4739
(dp4740
g62
(dp4741
sg71
g4735
sg64
(lp4742
g57
(g58
g59
NtRp4743
(dp4744
g62
(dp4745
g70
I4
ssg71
g4739
sg64
(lp4746
g57
(g66
g59
NtRp4747
(dp4748
g62
(dp4749
g70
I3
ssg71
Nsg64
(lp4750
g57
(g73
g59
NtRp4751
(dp4752
g62
(dp4753
sg71
g4747
sg64
(lp4754
g57
(g78
g59
NtRp4755
(dp4756
g62
(dp4757
sg71
g4751
sg64
(lp4758
g57
(g58
g59
NtRp4759
(dp4760
g62
(dp4761
g70
I3
ssg71
g4755
sg64
(lp4762
g57
(cgluon.html
SPAN
p4763
g59
NtRp4764
(dp4765
g62
(dp4766
g82
S'color:yellow'
p4767
ssg71
Nsg64
(lp4768
g4638
asbasbasbasbag57
(g73
g59
NtRp4769
(dp4770
g62
(dp4771
sg71
g4747
sg64
(lp4772
g57
(g78
g59
NtRp4773
(dp4774
g62
(dp4775
sg71
g4769
sg64
(lp4776
g57
(g58
g59
NtRp4777
(dp4778
g62
(dp4779
g70
I3
ssg71
g4773
sg64
(lp4780
g100
asbasbasbag57
(g73
g59
NtRp4781
(dp4782
g62
(dp4783
sg71
g4747
sg64
(lp4784
g57
(g78
g59
NtRp4785
(dp4786
g62
(dp4787
sg71
g4781
sg64
(lp4788
g57
(g58
g59
NtRp4789
(dp4790
g62
(dp4791
g70
I3
ssg71
g4785
sg64
(lp4792
S'None'
p4793
asbasbasbag57
(g73
g59
NtRp4794
(dp4795
g62
(dp4796
sg71
g4747
sg64
(lp4797
g57
(g78
g59
NtRp4798
(dp4799
g62
(dp4800
sg71
g4794
sg64
(lp4801
g57
(g58
g59
NtRp4802
(dp4803
g62
(dp4804
g70
I3
ssg71
g4798
sg64
(lp4805
g57
(g66
g59
NtRp4806
(dp4807
g62
(dp4808
g70
I2
ssg71
Nsg64
(lp4809
g57
(g73
g59
NtRp4810
(dp4811
g62
(dp4812
sg71
g4806
sg64
(lp4813
g57
(g78
g59
NtRp4814
(dp4815
g62
(dp4816
sg71
g4810
sg64
(lp4817
g57
(g58
g59
NtRp4818
(dp4819
g62
(dp4820
g70
I2
ssg71
g4814
sg64
(lp4821
g57
(g66
g59
NtRp4822
(dp4823
g62
(dp4824
g70
I1
ssg71
Nsg64
(lp4825
g57
(g73
g59
NtRp4826
(dp4827
g62
(dp4828
sg71
g4822
sg64
(lp4829
g57
(g78
g59
NtRp4830
(dp4831
g62
(dp4832
sg71
g4826
sg64
(lp4833
g57
(g58
g59
NtRp4834
(dp4835
g62
(dp4836
g70
I1
ssg71
g4830
sg64
(lp4837
g4692
(S's\x08\x00\x00\x00My Sites'
tRp4838
asbasbasbag57
(g73
g59
NtRp4839
(dp4840
g62
(dp4841
sg71
g4822
sg64
(lp4842
g57
(g78
g59
NtRp4843
(dp4844
g62
(dp4845
sg71
g4839
sg64
(lp4846
g57
(g58
g59
NtRp4847
(dp4848
g62
(dp4849
g70
I1
ssg71
g4843
sg64
(lp4850
I00
asbasbasbag57
(g73
g59
NtRp4851
(dp4852
g62
(dp4853
sg71
g4822
sg64
(lp4854
g57
(g78
g59
NtRp4855
(dp4856
g62
(dp4857
sg71
g4851
sg64
(lp4858
g57
(g58
g59
NtRp4859
(dp4860
g62
(dp4861
g70
I1
ssg71
g4855
sg64
(lp4862
S'/admin/default/site'
p4863
asbasbasbasbasbasbasbag57
(g73
g59
NtRp4864
(dp4865
g62
(dp4866
sg71
g4806
sg64
(lp4867
g57
(g78
g59
NtRp4868
(dp4869
g62
(dp4870
sg71
g4864
sg64
(lp4871
g57
(g58
g59
NtRp4872
(dp4873
g62
(dp4874
g70
I2
ssg71
g4868
sg64
(lp4875
g57
(g66
g59
NtRp4876
(dp4877
g62
(dp4878
g70
I1
ssg71
Nsg64
(lp4879
g57
(g73
g59
NtRp4880
(dp4881
g62
(dp4882
sg71
g4876
sg64
(lp4883
g57
(g78
g59
NtRp4884
(dp4885
g62
(dp4886
sg71
g4880
sg64
(lp4887
g57
(g58
g59
NtRp4888
(dp4889
g62
(dp4890
g70
I1
ssg71
g4884
sg64
(lp4891
g4692
(S's\x08\x00\x00\x00This App'
tRp4892
asbasbasbag57
(g73
g59
NtRp4893
(dp4894
g62
(dp4895
sg71
g4876
sg64
(lp4896
g57
(g78
g59
NtRp4897
(dp4898
g62
(dp4899
sg71
g4893
sg64
(lp4900
g57
(g58
g59
NtRp4901
(dp4902
g62
(dp4903
g70
I1
ssg71
g4897
sg64
(lp4904
I00
asbasbasbag57
(g73
g59
NtRp4905
(dp4906
g62
(dp4907
sg71
g4876
sg64
(lp4908
g57
(g78
g59
NtRp4909
(dp4910
g62
(dp4911
sg71
g4905
sg64
(lp4912
g57
(g58
g59
NtRp4913
(dp4914
g62
(dp4915
g70
I1
ssg71
g4909
sg64
(lp4916
S'/admin/default/design/Inventory'
p4917
asbasbasbag57
(g73
g59
NtRp4918
(dp4919
g62
(dp4920
sg71
g4876
sg64
(lp4921
g57
(g78
g59
NtRp4922
(dp4923
g62
(dp4924
sg71
g4918
sg64
(lp4925
g57
(g58
g59
NtRp4926
(dp4927
g62
(dp4928
g70
I1
ssg71
g4922
sg64
(lp4929
(lp4930
(g4692
(S's\n\x00\x00\x00Controller'
tRp4931
I00
S'/admin/default/edit/Inventory/controllers/qrinv.py'
tp4932
a(g4692
(S's\x04\x00\x00\x00View'
tRp4933
I00
S'/admin/default/edit/Inventory/views/qrinv/enter_inventory.html'
tp4934
a(g4692
(S's\x06\x00\x00\x00Layout'
tRp4935
I00
S'/admin/default/edit/Inventory/views/layout.html'
tp4936
a(g4692
(S's\n\x00\x00\x00Stylesheet'
tRp4937
I00
S'/admin/default/edit/Inventory/static/css/web2py.css'
tp4938
a(g4692
(S's\x08\x00\x00\x00DB Model'
tRp4939
I00
S'/admin/default/edit/Inventory/models/db.py'
tp4940
a(g4692
(S's\n\x00\x00\x00Menu Model'
tRp4941
I00
S'/admin/default/edit/Inventory/models/menu.py'
tp4942
a(g4692
(S's\x08\x00\x00\x00Database'
tRp4943
I00
S'/Inventory/appadmin/index'
tp4944
a(g4692
(S's\x06\x00\x00\x00Errors'
tRp4945
I00
S'/admin/default/errors/Inventory'
tp4946
a(g4692
(S's\x05\x00\x00\x00About'
tRp4947
I00
S'/admin/default/about/Inventory'
tp4948
aasbasbasbasbasbasbasbag57
(g73
g59
NtRp4949
(dp4950
g62
(dp4951
sg71
g4806
sg64
(lp4952
g57
(g78
g59
NtRp4953
(dp4954
g62
(dp4955
sg71
g4949
sg64
(lp4956
g57
(g58
g59
NtRp4957
(dp4958
g62
(dp4959
g70
I2
ssg71
g4953
sg64
(lp4960
g57
(g66
g59
NtRp4961
(dp4962
g62
(dp4963
g70
I1
ssg71
Nsg64
(lp4964
g57
(g73
g59
NtRp4965
(dp4966
g62
(dp4967
sg71
g4961
sg64
(lp4968
g57
(g78
g59
NtRp4969
(dp4970
g62
(dp4971
sg71
g4965
sg64
(lp4972
g57
(g58
g59
NtRp4973
(dp4974
g62
(dp4975
g70
I1
ssg71
g4969
sg64
(lp4976
S'web2py.com'
p4977
asbasbasbag57
(g73
g59
NtRp4978
(dp4979
g62
(dp4980
sg71
g4961
sg64
(lp4981
g57
(g78
g59
NtRp4982
(dp4983
g62
(dp4984
sg71
g4978
sg64
(lp4985
g57
(g58
g59
NtRp4986
(dp4987
g62
(dp4988
g70
I1
ssg71
g4982
sg64
(lp4989
I00
asbasbasbag57
(g73
g59
NtRp4990
(dp4991
g62
(dp4992
sg71
g4961
sg64
(lp4993
g57
(g78
g59
NtRp4994
(dp4995
g62
(dp4996
sg71
g4990
sg64
(lp4997
g57
(g58
g59
NtRp4998
(dp4999
g62
(dp5000
g70
I1
ssg71
g4994
sg64
(lp5001
S'http://www.web2py.com'
p5002
asbasbasbag57
(g73
g59
NtRp5003
(dp5004
g62
(dp5005
sg71
g4961
sg64
(lp5006
g57
(g78
g59
NtRp5007
(dp5008
g62
(dp5009
sg71
g5003
sg64
(lp5010
g57
(g58
g59
NtRp5011
(dp5012
g62
(dp5013
g70
I1
ssg71
g5007
sg64
(lp5014
(lp5015
(g4692
(S's\x08\x00\x00\x00Download'
tRp5016
I00
S'http://www.web2py.com/examples/default/download'
p5017
tp5018
a(g4692
(S's\x07\x00\x00\x00Support'
tRp5019
I00
S'http://www.web2py.com/examples/default/support'
p5020
tp5021
a(g4692
(S's\x04\x00\x00\x00Demo'
tRp5022
I00
S'http://web2py.com/demo_admin'
p5023
tp5024
a(g4692
(S's\x0e\x00\x00\x00Quick Examples'
tRp5025
I00
S'http://web2py.com/examples/default/examples'
p5026
tp5027
a(g4692
(S's\x03\x00\x00\x00FAQ'
tRp5028
I00
S'http://web2py.com/AlterEgo'
p5029
tp5030
a(g4692
(S's\x06\x00\x00\x00Videos'
tRp5031
I00
S'http://www.web2py.com/examples/default/videos/'
p5032
tp5033
a(g4692
(S's\x11\x00\x00\x00Free Applications'
tRp5034
I00
S'http://web2py.com/appliances'
p5035
tp5036
a(g4692
(S's\x07\x00\x00\x00Plugins'
tRp5037
I00
S'http://web2py.com/plugins'
p5038
tp5039
a(g4692
(S's\x07\x00\x00\x00Layouts'
tRp5040
I00
S'http://web2py.com/layouts'
p5041
tp5042
a(g4692
(S's\x07\x00\x00\x00Recipes'
tRp5043
I00
S'http://web2pyslices.com/'
p5044
tp5045
a(g4692
(S's\x08\x00\x00\x00Semantic'
tRp5046
I00
S'http://web2py.com/semantic'
p5047
tp5048
aasbasbasbasbasbasbasbag57
(g73
g59
NtRp5049
(dp5050
g62
(dp5051
sg71
g4806
sg64
(lp5052
g57
(g78
g59
NtRp5053
(dp5054
g62
(dp5055
sg71
g5049
sg64
(lp5056
g57
(g58
g59
NtRp5057
(dp5058
g62
(dp5059
g70
I2
ssg71
g5053
sg64
(lp5060
g57
(g66
g59
NtRp5061
(dp5062
g62
(dp5063
g70
I1
ssg71
Nsg64
(lp5064
g57
(g73
g59
NtRp5065
(dp5066
g62
(dp5067
sg71
g5061
sg64
(lp5068
g57
(g78
g59
NtRp5069
(dp5070
g62
(dp5071
sg71
g5065
sg64
(lp5072
g57
(g58
g59
NtRp5073
(dp5074
g62
(dp5075
g70
I1
ssg71
g5069
sg64
(lp5076
g4692
(S's\r\x00\x00\x00Documentation'
tRp5077
asbasbasbag57
(g73
g59
NtRp5078
(dp5079
g62
(dp5080
sg71
g5061
sg64
(lp5081
g57
(g78
g59
NtRp5082
(dp5083
g62
(dp5084
sg71
g5078
sg64
(lp5085
g57
(g58
g59
NtRp5086
(dp5087
g62
(dp5088
g70
I1
ssg71
g5082
sg64
(lp5089
I00
asbasbasbag57
(g73
g59
NtRp5090
(dp5091
g62
(dp5092
sg71
g5061
sg64
(lp5093
g57
(g78
g59
NtRp5094
(dp5095
g62
(dp5096
sg71
g5090
sg64
(lp5097
g57
(g58
g59
NtRp5098
(dp5099
g62
(dp5100
g70
I1
ssg71
g5094
sg64
(lp5101
S'http://www.web2py.com/book'
p5102
asbasbasbag57
(g73
g59
NtRp5103
(dp5104
g62
(dp5105
sg71
g5061
sg64
(lp5106
g57
(g78
g59
NtRp5107
(dp5108
g62
(dp5109
sg71
g5103
sg64
(lp5110
g57
(g58
g59
NtRp5111
(dp5112
g62
(dp5113
g70
I1
ssg71
g5107
sg64
(lp5114
(lp5115
(g4692
(S's\x07\x00\x00\x00Preface'
tRp5116
I00
S'http://www.web2py.com/book/default/chapter/00'
p5117
tp5118
a(g4692
(S's\x0c\x00\x00\x00Introduction'
tRp5119
I00
S'http://www.web2py.com/book/default/chapter/01'
p5120
tp5121
a(g4692
(S's\x06\x00\x00\x00Python'
tRp5122
I00
S'http://www.web2py.com/book/default/chapter/02'
p5123
tp5124
a(g4692
(S's\x08\x00\x00\x00Overview'
tRp5125
I00
S'http://www.web2py.com/book/default/chapter/03'
p5126
tp5127
a(g4692
(S's\x08\x00\x00\x00The Core'
tRp5128
I00
S'http://www.web2py.com/book/default/chapter/04'
p5129
tp5130
a(g4692
(S's\t\x00\x00\x00The Views'
tRp5131
I00
S'http://www.web2py.com/book/default/chapter/05'
p5132
tp5133
a(g4692
(S's\x08\x00\x00\x00Database'
tRp5134
I00
S'http://www.web2py.com/book/default/chapter/06'
p5135
tp5136
a(g4692
(S's\x14\x00\x00\x00Forms and Validators'
tRp5137
I00
S'http://www.web2py.com/book/default/chapter/07'
p5138
tp5139
a(g4692
(S's\r\x00\x00\x00Email and SMS'
tRp5140
I00
S'http://www.web2py.com/book/default/chapter/08'
p5141
tp5142
a(g4692
(S's\x0e\x00\x00\x00Access Control'
tRp5143
I00
S'http://www.web2py.com/book/default/chapter/09'
p5144
tp5145
a(g4692
(S's\x08\x00\x00\x00Services'
tRp5146
I00
S'http://www.web2py.com/book/default/chapter/10'
p5147
tp5148
a(g4692
(S's\x0c\x00\x00\x00Ajax Recipes'
tRp5149
I00
S'http://www.web2py.com/book/default/chapter/11'
p5150
tp5151
a(g4692
(S's\x16\x00\x00\x00Components and Plugins'
tRp5152
I00
S'http://www.web2py.com/book/default/chapter/12'
p5153
tp5154
a(g4692
(S's\x12\x00\x00\x00Deployment Recipes'
tRp5155
I00
S'http://www.web2py.com/book/default/chapter/13'
p5156
tp5157
a(g4692
(S's\r\x00\x00\x00Other Recipes'
tRp5158
I00
S'http://www.web2py.com/book/default/chapter/14'
p5159
tp5160
a(g4692
(S's\r\x00\x00\x00Buy this book'
tRp5161
I00
S'http://stores.lulu.com/web2py'
p5162
tp5163
aasbasbasbasbasbasbasbag57
(g73
g59
NtRp5164
(dp5165
g62
(dp5166
sg71
g4806
sg64
(lp5167
g57
(g78
g59
NtRp5168
(dp5169
g62
(dp5170
sg71
g5164
sg64
(lp5171
g57
(g58
g59
NtRp5172
(dp5173
g62
(dp5174
g70
I2
ssg71
g5168
sg64
(lp5175
g57
(g66
g59
NtRp5176
(dp5177
g62
(dp5178
g70
I1
ssg71
Nsg64
(lp5179
g57
(g73
g59
NtRp5180
(dp5181
g62
(dp5182
sg71
g5176
sg64
(lp5183
g57
(g78
g59
NtRp5184
(dp5185
g62
(dp5186
sg71
g5180
sg64
(lp5187
g57
(g58
g59
NtRp5188
(dp5189
g62
(dp5190
g70
I1
ssg71
g5184
sg64
(lp5191
g4692
(S's\t\x00\x00\x00Community'
tRp5192
asbasbasbag57
(g73
g59
NtRp5193
(dp5194
g62
(dp5195
sg71
g5176
sg64
(lp5196
g57
(g78
g59
NtRp5197
(dp5198
g62
(dp5199
sg71
g5193
sg64
(lp5200
g57
(g58
g59
NtRp5201
(dp5202
g62
(dp5203
g70
I1
ssg71
g5197
sg64
(lp5204
I00
asbasbasbag57
(g73
g59
NtRp5205
(dp5206
g62
(dp5207
sg71
g5176
sg64
(lp5208
g57
(g78
g59
NtRp5209
(dp5210
g62
(dp5211
sg71
g5205
sg64
(lp5212
g57
(g58
g59
NtRp5213
(dp5214
g62
(dp5215
g70
I1
ssg71
g5209
sg64
(lp5216
Nasbasbasbag57
(g73
g59
NtRp5217
(dp5218
g62
(dp5219
sg71
g5176
sg64
(lp5220
g57
(g78
g59
NtRp5221
(dp5222
g62
(dp5223
sg71
g5217
sg64
(lp5224
g57
(g58
g59
NtRp5225
(dp5226
g62
(dp5227
g70
I1
ssg71
g5221
sg64
(lp5228
(lp5229
(g4692
(S's\x06\x00\x00\x00Groups'
tRp5230
I00
S'http://www.web2py.com/examples/default/usergroups'
p5231
tp5232
a(g4692
(S's\x07\x00\x00\x00Twitter'
tRp5233
I00
S'http://twitter.com/web2py'
p5234
tp5235
a(g4692
(S's\t\x00\x00\x00Live Chat'
tRp5236
I00
S'http://webchat.freenode.net/?channels=web2py'
p5237
tp5238
aasbasbasbasbasbasbasbag57
(g73
g59
NtRp5239
(dp5240
g62
(dp5241
sg71
g4806
sg64
(lp5242
g57
(g78
g59
NtRp5243
(dp5244
g62
(dp5245
sg71
g5239
sg64
(lp5246
g57
(g58
g59
NtRp5247
(dp5248
g62
(dp5249
g70
I2
ssg71
g5243
sg64
(lp5250
g57
(g66
g59
NtRp5251
(dp5252
g62
(dp5253
g70
I1
ssg71
Nsg64
(lp5254
g57
(g73
g59
NtRp5255
(dp5256
g62
(dp5257
sg71
g5251
sg64
(lp5258
g57
(g78
g59
NtRp5259
(dp5260
g62
(dp5261
sg71
g5255
sg64
(lp5262
g57
(g58
g59
NtRp5263
(dp5264
g62
(dp5265
g70
I1
ssg71
g5259
sg64
(lp5266
g4692
(S's\x07\x00\x00\x00Plugins'
tRp5267
asbasbasbag57
(g73
g59
NtRp5268
(dp5269
g62
(dp5270
sg71
g5251
sg64
(lp5271
g57
(g78
g59
NtRp5272
(dp5273
g62
(dp5274
sg71
g5268
sg64
(lp5275
g57
(g58
g59
NtRp5276
(dp5277
g62
(dp5278
g70
I1
ssg71
g5272
sg64
(lp5279
I00
asbasbasbag57
(g73
g59
NtRp5280
(dp5281
g62
(dp5282
sg71
g5251
sg64
(lp5283
g57
(g78
g59
NtRp5284
(dp5285
g62
(dp5286
sg71
g5280
sg64
(lp5287
g57
(g58
g59
NtRp5288
(dp5289
g62
(dp5290
g70
I1
ssg71
g5284
sg64
(lp5291
Nasbasbasbag57
(g73
g59
NtRp5292
(dp5293
g62
(dp5294
sg71
g5251
sg64
(lp5295
g57
(g78
g59
NtRp5296
(dp5297
g62
(dp5298
sg71
g5292
sg64
(lp5299
g57
(g58
g59
NtRp5300
(dp5301
g62
(dp5302
g70
I1
ssg71
g5296
sg64
(lp5303
(lp5304
(S'plugin_wiki'
p5305
I00
S'http://web2py.com/examples/default/download'
p5306
tp5307
a(g4692
(S's\r\x00\x00\x00Other Plugins'
tRp5308
I00
g5038
tp5309
a(g4692
(S's\x0e\x00\x00\x00Layout Plugins'
tRp5310
I00
g5041
tp5311
aasbasbasbasbasbasbasbasbasbasbasbasbasbasbasbasbasbasbasbag57
(g73
g59
NtRp5312
(dp5313
g62
(dp5314
sg71
g4136
sg64
(lp5315
g57
(g78
g59
NtRp5316
(dp5317
g62
(dp5318
g82
g83
ssg71
g5312
sg64
(lp5319
S'meta'
p5320
asbag57
(g78
g59
NtRp5321
(dp5322
g62
(dp5323
g89
g90
ssg71
g5312
sg64
(lp5324
S':'
asbag57
(g78
g59
NtRp5325
(dp5326
g62
(dp5327
sg71
g5312
sg64
(lp5328
g57
(g58
g59
NtRp5329
(dp5330
g62
(dp5331
g70
I5
ssg71
g5325
sg64
(lp5332
g57
(g66
g59
NtRp5333
(dp5334
g62
(dp5335
g70
I4
ssg71
Nsg64
(lp5336
g57
(g73
g59
NtRp5337
(dp5338
g62
(dp5339
sg71
g5333
sg64
(lp5340
g57
(g78
g59
NtRp5341
(dp5342
g62
(dp5343
g82
g83
ssg71
g5337
sg64
(lp5344
S'author'
p5345
asbag57
(g78
g59
NtRp5346
(dp5347
g62
(dp5348
g89
g90
ssg71
g5337
sg64
(lp5349
S':'
asbag57
(g78
g59
NtRp5350
(dp5351
g62
(dp5352
sg71
g5337
sg64
(lp5353
g57
(g58
g59
NtRp5354
(dp5355
g62
(dp5356
g70
I4
ssg71
g5350
sg64
(lp5357
S'Your Name <you@example.com>'
p5358
asbasbasbag57
(g73
g59
NtRp5359
(dp5360
g62
(dp5361
sg71
g5333
sg64
(lp5362
g57
(g78
g59
NtRp5363
(dp5364
g62
(dp5365
g82
g83
ssg71
g5359
sg64
(lp5366
S'copyright'
p5367
asbag57
(g78
g59
NtRp5368
(dp5369
g62
(dp5370
g89
g90
ssg71
g5359
sg64
(lp5371
S':'
asbag57
(g78
g59
NtRp5372
(dp5373
g62
(dp5374
sg71
g5359
sg64
(lp5375
g57
(g58
g59
NtRp5376
(dp5377
g62
(dp5378
g70
I4
ssg71
g5372
sg64
(lp5379
S'Copyright 2011'
p5380
asbasbasbag57
(g73
g59
NtRp5381
(dp5382
g62
(dp5383
sg71
g5333
sg64
(lp5384
g57
(g78
g59
NtRp5385
(dp5386
g62
(dp5387
g82
g83
ssg71
g5381
sg64
(lp5388
S'description'
p5389
asbag57
(g78
g59
NtRp5390
(dp5391
g62
(dp5392
g89
g90
ssg71
g5381
sg64
(lp5393
S':'
asbag57
(g78
g59
NtRp5394
(dp5395
g62
(dp5396
sg71
g5381
sg64
(lp5397
g57
(g58
g59
NtRp5398
(dp5399
g62
(dp5400
g70
I4
ssg71
g5394
sg64
(lp5401
S'a cool new app'
p5402
asbasbasbag57
(g73
g59
NtRp5403
(dp5404
g62
(dp5405
sg71
g5333
sg64
(lp5406
g57
(g78
g59
NtRp5407
(dp5408
g62
(dp5409
g82
g83
ssg71
g5403
sg64
(lp5410
S'generator'
p5411
asbag57
(g78
g59
NtRp5412
(dp5413
g62
(dp5414
g89
g90
ssg71
g5403
sg64
(lp5415
S':'
asbag57
(g78
g59
NtRp5416
(dp5417
g62
(dp5418
sg71
g5403
sg64
(lp5419
g57
(g58
g59
NtRp5420
(dp5421
g62
(dp5422
g70
I4
ssg71
g5416
sg64
(lp5423
S'Web2py Web Framework'
p5424
asbasbasbag57
(g73
g59
NtRp5425
(dp5426
g62
(dp5427
sg71
g5333
sg64
(lp5428
g57
(g78
g59
NtRp5429
(dp5430
g62
(dp5431
g82
g83
ssg71
g5425
sg64
(lp5432
S'keywords'
p5433
asbag57
(g78
g59
NtRp5434
(dp5435
g62
(dp5436
g89
g90
ssg71
g5425
sg64
(lp5437
S':'
asbag57
(g78
g59
NtRp5438
(dp5439
g62
(dp5440
sg71
g5425
sg64
(lp5441
g57
(g58
g59
NtRp5442
(dp5443
g62
(dp5444
g70
I4
ssg71
g5438
sg64
(lp5445
S'web2py, python, framework'
p5446
asbasbasbasbasbasbasbag57
(g73
g59
NtRp5447
(dp5448
g62
(dp5449
sg71
g4136
sg64
(lp5450
g57
(g78
g59
NtRp5451
(dp5452
g62
(dp5453
g82
g83
ssg71
g5447
sg64
(lp5454
S'postprocessing'
p5455
asbag57
(g78
g59
NtRp5456
(dp5457
g62
(dp5458
g89
g90
ssg71
g5447
sg64
(lp5459
S':'
asbag57
(g78
g59
NtRp5460
(dp5461
g62
(dp5462
sg71
g5447
sg64
(lp5463
g57
(g58
g59
NtRp5464
(dp5465
g62
(dp5466
g70
I5
ssg71
g5460
sg64
(lp5467
g57
(g66
g59
NtRp5468
(dp5469
g62
(dp5470
g70
I4
ssg71
Nsg64
(lp5471
sbasbasbasbag57
(g73
g59
NtRp5472
(dp5473
g62
(dp5474
sg71
g4136
sg64
(lp5475
g57
(g78
g59
NtRp5476
(dp5477
g62
(dp5478
g82
g83
ssg71
g5472
sg64
(lp5479
S'session_file'
p5480
asbag57
(g78
g59
NtRp5481
(dp5482
g62
(dp5483
g89
g90
ssg71
g5472
sg64
(lp5484
S':'
asbag57
(g78
g59
NtRp5485
(dp5486
g62
(dp5487
sg71
g5472
sg64
(lp5488
g57
(g58
g59
NtRp5489
(dp5490
g62
(dp5491
g70
I5
ssg71
g5485
sg64
(lp5492
S"<open file '/home/jpr/Source/web2py/applications/Inventory/sessions/127.0.0.1-843ac654-d601-4208-8fea-a12f721c7d34', mode 'rb+' at 0xb12f3e8>"
p5493
asbasbasbag57
(g73
g59
NtRp5494
(dp5495
g62
(dp5496
sg71
g4136
sg64
(lp5497
g57
(g78
g59
NtRp5498
(dp5499
g62
(dp5500
g82
g83
ssg71
g5494
sg64
(lp5501
S'session_filename'
p5502
asbag57
(g78
g59
NtRp5503
(dp5504
g62
(dp5505
g89
g90
ssg71
g5494
sg64
(lp5506
S':'
asbag57
(g78
g59
NtRp5507
(dp5508
g62
(dp5509
sg71
g5494
sg64
(lp5510
g57
(g58
g59
NtRp5511
(dp5512
g62
(dp5513
g70
I5
ssg71
g5507
sg64
(lp5514
S'/home/jpr/Source/web2py/applications/Inventory/sessions/127.0.0.1-843ac654-d601-4208-8fea-a12f721c7d34'
p5515
asbasbasbag57
(g73
g59
NtRp5516
(dp5517
g62
(dp5518
sg71
g4136
sg64
(lp5519
g57
(g78
g59
NtRp5520
(dp5521
g62
(dp5522
g82
g83
ssg71
g5516
sg64
(lp5523
S'session_id'
p5524
asbag57
(g78
g59
NtRp5525
(dp5526
g62
(dp5527
g89
g90
ssg71
g5516
sg64
(lp5528
S':'
asbag57
(g78
g59
NtRp5529
(dp5530
g62
(dp5531
sg71
g5516
sg64
(lp5532
g57
(g58
g59
NtRp5533
(dp5534
g62
(dp5535
g70
I5
ssg71
g5529
sg64
(lp5536
S'127.0.0.1-843ac654-d601-4208-8fea-a12f721c7d34'
p5537
asbasbasbag57
(g73
g59
NtRp5538
(dp5539
g62
(dp5540
sg71
g4136
sg64
(lp5541
g57
(g78
g59
NtRp5542
(dp5543
g62
(dp5544
g82
g83
ssg71
g5538
sg64
(lp5545
S'session_id_name'
p5546
asbag57
(g78
g59
NtRp5547
(dp5548
g62
(dp5549
g89
g90
ssg71
g5538
sg64
(lp5550
S':'
asbag57
(g78
g59
NtRp5551
(dp5552
g62
(dp5553
sg71
g5538
sg64
(lp5554
g57
(g58
g59
NtRp5555
(dp5556
g62
(dp5557
g70
I5
ssg71
g5551
sg64
(lp5558
g4193
asbasbasbag57
(g73
g59
NtRp5559
(dp5560
g62
(dp5561
sg71
g4136
sg64
(lp5562
g57
(g78
g59
NtRp5563
(dp5564
g62
(dp5565
g82
g83
ssg71
g5559
sg64
(lp5566
S'session_locked'
p5567
asbag57
(g78
g59
NtRp5568
(dp5569
g62
(dp5570
g89
g90
ssg71
g5559
sg64
(lp5571
S':'
asbag57
(g78
g59
NtRp5572
(dp5573
g62
(dp5574
sg71
g5559
sg64
(lp5575
g57
(g58
g59
NtRp5576
(dp5577
g62
(dp5578
g70
I5
ssg71
g5572
sg64
(lp5579
g1742
asbasbasbag57
(g73
g59
NtRp5580
(dp5581
g62
(dp5582
sg71
g4136
sg64
(lp5583
g57
(g78
g59
NtRp5584
(dp5585
g62
(dp5586
g82
g83
ssg71
g5580
sg64
(lp5587
S'session_new'
p5588
asbag57
(g78
g59
NtRp5589
(dp5590
g62
(dp5591
g89
g90
ssg71
g5580
sg64
(lp5592
S':'
asbag57
(g78
g59
NtRp5593
(dp5594
g62
(dp5595
sg71
g5580
sg64
(lp5596
g57
(g58
g59
NtRp5597
(dp5598
g62
(dp5599
g70
I5
ssg71
g5593
sg64
(lp5600
g100
asbasbasbag57
(g73
g59
NtRp5601
(dp5602
g62
(dp5603
sg71
g4136
sg64
(lp5604
g57
(g78
g59
NtRp5605
(dp5606
g62
(dp5607
g82
g83
ssg71
g5601
sg64
(lp5608
S'status'
p5609
asbag57
(g78
g59
NtRp5610
(dp5611
g62
(dp5612
g89
g90
ssg71
g5601
sg64
(lp5613
S':'
asbag57
(g78
g59
NtRp5614
(dp5615
g62
(dp5616
sg71
g5601
sg64
(lp5617
g57
(g58
g59
NtRp5618
(dp5619
g62
(dp5620
g70
I5
ssg71
g5614
sg64
(lp5621
S'200'
p5622
asbasbasbag57
(g73
g59
NtRp5623
(dp5624
g62
(dp5625
sg71
g4136
sg64
(lp5626
g57
(g78
g59
NtRp5627
(dp5628
g62
(dp5629
g82
g83
ssg71
g5623
sg64
(lp5630
S'subtitle'
p5631
asbag57
(g78
g59
NtRp5632
(dp5633
g62
(dp5634
g89
g90
ssg71
g5623
sg64
(lp5635
S':'
asbag57
(g78
g59
NtRp5636
(dp5637
g62
(dp5638
sg71
g5623
sg64
(lp5639
g57
(g58
g59
NtRp5640
(dp5641
g62
(dp5642
g70
I5
ssg71
g5636
sg64
(lp5643
g4692
(S's\r\x00\x00\x00customize me!'
tRp5644
asbasbasbag57
(g73
g59
NtRp5645
(dp5646
g62
(dp5647
sg71
g4136
sg64
(lp5648
g57
(g78
g59
NtRp5649
(dp5650
g62
(dp5651
g82
g83
ssg71
g5645
sg64
(lp5652
S'title'
p5653
asbag57
(g78
g59
NtRp5654
(dp5655
g62
(dp5656
g89
g90
ssg71
g5645
sg64
(lp5657
S':'
asbag57
(g78
g59
NtRp5658
(dp5659
g62
(dp5660
sg71
g5645
sg64
(lp5661
g57
(g58
g59
NtRp5662
(dp5663
g62
(dp5664
g70
I5
ssg71
g5658
sg64
(lp5665
S'Inventory'
p5666
asbasbasbag57
(g73
g59
NtRp5667
(dp5668
g62
(dp5669
sg71
g4136
sg64
(lp5670
g57
(g78
g59
NtRp5671
(dp5672
g62
(dp5673
g82
g83
ssg71
g5667
sg64
(lp5674
g2621
asbag57
(g78
g59
NtRp5675
(dp5676
g62
(dp5677
g89
g90
ssg71
g5667
sg64
(lp5678
S':'
asbag57
(g78
g59
NtRp5679
(dp5680
g62
(dp5681
sg71
g5667
sg64
(lp5682
g57
(g58
g59
NtRp5683
(dp5684
g62
(dp5685
g70
I5
ssg71
g5679
sg64
(lp5686
g2634
asbasbasbag57
(g73
g59
NtRp5687
(dp5688
g62
(dp5689
sg71
g4136
sg64
(lp5690
g57
(g78
g59
NtRp5691
(dp5692
g62
(dp5693
g82
g83
ssg71
g5687
sg64
(lp5694
S'view'
p5695
asbag57
(g78
g59
NtRp5696
(dp5697
g62
(dp5698
g89
g90
ssg71
g5687
sg64
(lp5699
S':'
asbag57
(g78
g59
NtRp5700
(dp5701
g62
(dp5702
sg71
g5687
sg64
(lp5703
g57
(g58
g59
NtRp5704
(dp5705
g62
(dp5706
g70
I5
ssg71
g5700
sg64
(lp5707
S'qrinv/enter_inventory.html'
p5708
asbasbasbasbasbsS'locals'
p5709
(dp5710
S'r'
S"<Row {'manuf': 'UED', 'whol_price': 80.0, 'descr...: 'LAMP-14', 'josh_van': None, 'grjr_van': None}>"
p5711
sssS'traceback'
p5712
S'Traceback (most recent call last):\n  File "/home/jpr/Source/web2py/gluon/restricted.py", line 205, in restricted\n    exec ccode in environment\n  File "/home/jpr/Source/web2py/applications/Inventory/controllers/qrinv.py", line 113, in <module>\n  File "/home/jpr/Source/web2py/gluon/globals.py", line 173, in <lambda>\n    self._caller = lambda f: f()\n  File "/home/jpr/Source/web2py/gluon/tools.py", line 2575, in f\n    return action(*a, **b)\n  File "/home/jpr/Source/web2py/applications/Inventory/controllers/qrinv.py", line 60, in enter_inventory\n    onaccept= lambda form : set_record(form), message=T("record created"))\n  File "/home/jpr/Source/web2py/gluon/tools.py", line 3172, in create\n    formname=formname,\n  File "/home/jpr/Source/web2py/gluon/tools.py", line 3115, in update\n    detect_record_change = self.settings.detect_record_change):\n  File "/home/jpr/Source/web2py/gluon/sqlhtml.py", line 1274, in accepts\n    self.vars.id = self.table.insert(**fields)\n  File "/home/jpr/Source/web2py/gluon/dal.py", line 6829, in insert\n    return self._db._adapter.insert(self,self._listify(fields))\n  File "/home/jpr/Source/web2py/gluon/dal.py", line 6818, in _listify\n    new_fields.append((ofield,ofield.compute(Row(fields))))\n  File "/home/jpr/Source/web2py/applications/Inventory/models/inventory.py", line 13, in <lambda>\n    Field(\'total_stock\',compute=lambda r: r[\'grjr_van\'] + r[\'josh_van\'] + r[\'gar_van\'] + r[\'john_van\'] + r[\'shop\']),\nTypeError: unsupported operand type(s) for +: \'NoneType\' and \'NoneType\'\n'
p5713
s.