(dp1
S'output'
p2
S"<type 'exceptions.ImportError'> No module named elaphe"
p3
sS'layer'
p4
S'/home/jpr/Source/web2py/applications/Inventory/controllers/qrinv.py'
p5
sS'code'
p6
S'# QR inventory system\n# 06/01/2012\n# Joel Robinson\n\nfrom elaphe import barcode\nfrom gluon.contenttype import contenttype\nif 0:\n    from gluon.globals import *\n    from gluon.html import *\n    from gluon.http import *\n    from gluon.sqlhtml import SQLFORM, SQLTABLE, form_factory\n    session = Session()\n    request = Request()\n    response = Response()\n    from gluon.sql import *\n    from gluon.validators import *\n    from db import * \n\ndef qrgen():\n    "Create QR codes"\n    image = IMG(_src=URL(\'static/images\', \'none.png\'), _alt="none")\n    form = SQLFORM.factory(\n        Field(\'message\', requires=IS_NOT_EMPTY())\n        )\n    if form.accepts(request.vars, session):                        \n        msg=request.vars.message               \n        session.msg=request.vars.message\n        image = IMG(_src=URL(\'qrcode\',vars={\'message\':msg}))\n        return dict(form=form,image=image)\n    else:\n        return dict(form=form,image=image)\n        \ndef qrcode():\n    # take session.msg and return equivilent QR code\n    qrcode=barcode(\'qrcode\', session.msg, options=dict(version=5, eclevel=\'M\'),\n        margin=10, data_mode=\'8-bits\')\n    response.headers[\'Content-Type\']="image/png"\n    qrcode.save(response.body, "PNG")\n    return response.body.getvalue()\n\n@auth.requires_login()    \ndef manage():\n    # manage inventory database\n    table=db.invent\n    form = crud.update(table,request.args(1))\n    #table.id.represent = lambda id, row: \\\n    #   A(\'edit:\',id,_href=URL(args=(request.args(1),id)))\n    table.id.represent = lambda id, row: A(\'edit:\',id,_href=URL(\'confirm_inventory\',vars= {\'ident\':id} ))\n    search, rows = crud.search(table)\n    return dict(form=form,search=search,rows=rows)\n\ndef set_record(form):\n    #helper furnction with enter_inventory\n    #can\'t put session var in enter_inventory or will return error if not set\n    session.record = form.vars.id\n\n@auth.requires_login()\ndef enter_inventory():      \n    form = crud.create(db.invent, next=URL(\'confirm_inventory\'), \\\n        onaccept= lambda form : set_record(form), message=T("record created"))\n    return dict(form=form)\n\n@auth.requires_login()    \ndef confirm_inventory():\n    # shows record just entered in enter_inventory    \n    #record = crud.read(db.invent,request.ident)\n    record = crud.read(db.invent,session.record) \n    # if session.record else "You have to enter a record first"\n    controller= request.env.path_info.strip("confirm_inventory")\n    page = "update_inventory?partnum="\n    location = "http://"+request.env.server_name+controller+page+record.record.partnum\n    session.msg=location    \n    image = IMG(_src=URL(\'qrcode\', vars={\'location\':location}),_id="qrcode")    \n    return dict(record=record,image=image)\n\n@auth.requires_login()\ndef view_inventory():\n    # query for partnum\n    # partnum should be in html request\n    # ex. view_inventory?partnum=LAMP-1\n    row = db(db.invent.partnum == request.get_vars.partnum).select().first()\n    # display queried object\n    record = crud.read(db.invent, row.id)\n    return dict(record=record)\n\ndef qr_request():\n    if (request.vars.partnum == None):\n        if(session.partnum != None):\n            redirect(URL(\'update_inventory\'))\n        else:\n            record = \'No part number URL should read "update_inventory?partnum=something"\'\n            return dict(record=record)\n    else:\n        session.partnum = request.vars.partnum\n        redirect(URL(\'update_inventory\'))\n\n@auth.requires_login()    \ndef update_inventory():\n    db.invent.partnum.writable = False\n    db.invent.manuf.writable = False\n    db.invent.description.writable = False\n    db.invent.whol_price.writable = False\n    db.invent.ret_price.writable = False\n    crud.settings.update_deletable = False \n    if request.get_vars.partnum:\n        row = db(db.invent.partnum == request.get_vars.partnum).select().first()\n        return dict(total = row.total_stock,row=row, record=crud.update(db.invent, row.id) if row\n            else \'Part #%s not found\' % request.get_vars.partnum) \n    else:\n        row = None\n        return dict(row=row, record="No part number. URL should read update_inventory?partnum=12345")\n\nresponse._vars=response._caller(enter_inventory)\n'
p7
sS'snapshot'
p8
(dp9
S'exception'
p10
(dp11
S'__hash__'
p12
S"<method-wrapper '__hash__' of exceptions.ImportError object>"
p13
sS'__setattr__'
p14
S"<method-wrapper '__setattr__' of exceptions.ImportError object>"
p15
sS'__reduce_ex__'
p16
S'<built-in method __reduce_ex__ of exceptions.ImportError object>'
p17
sS'__getslice__'
p18
S"<method-wrapper '__getslice__' of exceptions.ImportError object>"
p19
sS'__getitem__'
p20
S"<method-wrapper '__getitem__' of exceptions.ImportError object>"
p21
sS'__setstate__'
p22
S'<built-in method __setstate__ of exceptions.ImportError object>'
p23
sS'__reduce__'
p24
S'<built-in method __reduce__ of exceptions.ImportError object>'
p25
sS'__str__'
p26
S"<method-wrapper '__str__' of exceptions.ImportError object>"
p27
sS'__format__'
p28
S'<built-in method __format__ of exceptions.ImportError object>'
p29
sS'__getattribute__'
p30
S"<method-wrapper '__getattribute__' of exceptions.ImportError object>"
p31
sS'__class__'
p32
S"<type 'exceptions.ImportError'>"
p33
sS'__unicode__'
p34
S'<built-in method __unicode__ of exceptions.ImportError object>'
p35
sS'__delattr__'
p36
S"<method-wrapper '__delattr__' of exceptions.ImportError object>"
p37
sS'__subclasshook__'
p38
S'<built-in method __subclasshook__ of type object>'
p39
sS'__repr__'
p40
S"<method-wrapper '__repr__' of exceptions.ImportError object>"
p41
sS'args'
p42
S"('No module named elaphe',)"
p43
sS'__dict__'
p44
S'{}'
p45
sS'__sizeof__'
p46
S'<built-in method __sizeof__ of exceptions.ImportError object>'
p47
sS'__doc__'
p48
S'"Import can\'t find module, or can\'t find name in module."'
p49
sS'__init__'
p50
S"<method-wrapper '__init__' of exceptions.ImportError object>"
p51
sS'__new__'
p52
S'<built-in method __new__ of type object>'
p53
ssS'evalue'
p54
S'No module named elaphe'
p55
sS'request'
p56
ccopy_reg
_reconstructor
p57
(cgluon.html
BEAUTIFY
p58
c__builtin__
object
p59
NtRp60
(dp61
S'attributes'
p62
(dp63
sS'components'
p64
(lp65
g57
(cgluon.html
TABLE
p66
g59
NtRp67
(dp68
g62
(dp69
S'level'
p70
I5
ssS'parent'
p71
Nsg64
(lp72
g57
(cgluon.html
TR
p73
g59
NtRp74
(dp75
g62
(dp76
sg71
g67
sg64
(lp77
g57
(cgluon.html
TD
p78
g59
NtRp79
(dp80
g62
(dp81
S'_style'
p82
S'font-weight:bold;vertical-align:top'
p83
ssg71
g74
sg64
(lp84
S'ajax'
p85
asbag57
(g78
g59
NtRp86
(dp87
g62
(dp88
S'_valign'
p89
S'top'
p90
ssg71
g74
sg64
(lp91
S':'
asbag57
(g78
g59
NtRp92
(dp93
g62
(dp94
sg71
g74
sg64
(lp95
g57
(g58
g59
NtRp96
(dp97
g62
(dp98
g70
I5
ssg71
g92
sg64
(lp99
S'False'
p100
asbasbasbag57
(g73
g59
NtRp101
(dp102
g62
(dp103
sg71
g67
sg64
(lp104
g57
(g78
g59
NtRp105
(dp106
g62
(dp107
g82
g83
ssg71
g101
sg64
(lp108
S'application'
p109
asbag57
(g78
g59
NtRp110
(dp111
g62
(dp112
g89
g90
ssg71
g101
sg64
(lp113
S':'
asbag57
(g78
g59
NtRp114
(dp115
g62
(dp116
sg71
g101
sg64
(lp117
g57
(g58
g59
NtRp118
(dp119
g62
(dp120
g70
I5
ssg71
g114
sg64
(lp121
S'Inventory'
p122
asbasbasbag57
(g73
g59
NtRp123
(dp124
g62
(dp125
sg71
g67
sg64
(lp126
g57
(g78
g59
NtRp127
(dp128
g62
(dp129
g82
g83
ssg71
g123
sg64
(lp130
g42
asbag57
(g78
g59
NtRp131
(dp132
g62
(dp133
g89
g90
ssg71
g123
sg64
(lp134
S':'
asbag57
(g78
g59
NtRp135
(dp136
g62
(dp137
sg71
g123
sg64
(lp138
g57
(g58
g59
NtRp139
(dp140
g62
(dp141
g70
I5
ssg71
g135
sg64
(lp142
g57
(g66
g59
NtRp143
(dp144
g62
(dp145
g70
I4
ssg71
Nsg64
(lp146
sbasbasbasbag57
(g73
g59
NtRp147
(dp148
g62
(dp149
sg71
g67
sg64
(lp150
g57
(g78
g59
NtRp151
(dp152
g62
(dp153
g82
g83
ssg71
g147
sg64
(lp154
S'body'
p155
asbag57
(g78
g59
NtRp156
(dp157
g62
(dp158
g89
g90
ssg71
g147
sg64
(lp159
S':'
asbag57
(g78
g59
NtRp160
(dp161
g62
(dp162
sg71
g147
sg64
(lp163
g57
(g58
g59
NtRp164
(dp165
g62
(dp166
g70
I5
ssg71
g160
sg64
(lp167
S'<cStringIO.StringO object at 0x9d47100>'
p168
asbasbasbag57
(g73
g59
NtRp169
(dp170
g62
(dp171
sg71
g67
sg64
(lp172
g57
(g78
g59
NtRp173
(dp174
g62
(dp175
g82
g83
ssg71
g169
sg64
(lp176
S'client'
p177
asbag57
(g78
g59
NtRp178
(dp179
g62
(dp180
g89
g90
ssg71
g169
sg64
(lp181
S':'
asbag57
(g78
g59
NtRp182
(dp183
g62
(dp184
sg71
g169
sg64
(lp185
g57
(g58
g59
NtRp186
(dp187
g62
(dp188
g70
I5
ssg71
g182
sg64
(lp189
S'127.0.0.1'
p190
asbasbasbag57
(g73
g59
NtRp191
(dp192
g62
(dp193
sg71
g67
sg64
(lp194
g57
(g78
g59
NtRp195
(dp196
g62
(dp197
g82
g83
ssg71
g191
sg64
(lp198
S'controller'
p199
asbag57
(g78
g59
NtRp200
(dp201
g62
(dp202
g89
g90
ssg71
g191
sg64
(lp203
S':'
asbag57
(g78
g59
NtRp204
(dp205
g62
(dp206
sg71
g191
sg64
(lp207
g57
(g58
g59
NtRp208
(dp209
g62
(dp210
g70
I5
ssg71
g204
sg64
(lp211
S'qrinv'
p212
asbasbasbag57
(g73
g59
NtRp213
(dp214
g62
(dp215
sg71
g67
sg64
(lp216
g57
(g78
g59
NtRp217
(dp218
g62
(dp219
g82
g83
ssg71
g213
sg64
(lp220
S'cookies'
p221
asbag57
(g78
g59
NtRp222
(dp223
g62
(dp224
g89
g90
ssg71
g213
sg64
(lp225
S':'
asbag57
(g78
g59
NtRp226
(dp227
g62
(dp228
sg71
g213
sg64
(lp229
g57
(g58
g59
NtRp230
(dp231
g62
(dp232
g70
I5
ssg71
g226
sg64
(lp233
g57
(g66
g59
NtRp234
(dp235
g62
(dp236
g70
I4
ssg71
Nsg64
(lp237
g57
(g73
g59
NtRp238
(dp239
g62
(dp240
sg71
g234
sg64
(lp241
g57
(g78
g59
NtRp242
(dp243
g62
(dp244
g82
g83
ssg71
g238
sg64
(lp245
S'session_id_admin'
p246
asbag57
(g78
g59
NtRp247
(dp248
g62
(dp249
g89
g90
ssg71
g238
sg64
(lp250
S':'
asbag57
(g78
g59
NtRp251
(dp252
g62
(dp253
sg71
g238
sg64
(lp254
g57
(g58
g59
NtRp255
(dp256
g62
(dp257
g70
I4
ssg71
g251
sg64
(lp258
g57
(g66
g59
NtRp259
(dp260
g62
(dp261
g70
I3
ssg71
Nsg64
(lp262
g57
(g73
g59
NtRp263
(dp264
g62
(dp265
sg71
g259
sg64
(lp266
g57
(g78
g59
NtRp267
(dp268
g62
(dp269
g82
g83
ssg71
g263
sg64
(lp270
S'comment'
p271
asbag57
(g78
g59
NtRp272
(dp273
g62
(dp274
g89
g90
ssg71
g263
sg64
(lp275
S':'
asbag57
(g78
g59
NtRp276
(dp277
g62
(dp278
sg71
g263
sg64
(lp279
g57
(g58
g59
NtRp280
(dp281
g62
(dp282
g70
I3
ssg71
g276
sg64
(lp283
S''
asbasbasbag57
(g73
g59
NtRp284
(dp285
g62
(dp286
sg71
g259
sg64
(lp287
g57
(g78
g59
NtRp288
(dp289
g62
(dp290
g82
g83
ssg71
g284
sg64
(lp291
S'domain'
p292
asbag57
(g78
g59
NtRp293
(dp294
g62
(dp295
g89
g90
ssg71
g284
sg64
(lp296
S':'
asbag57
(g78
g59
NtRp297
(dp298
g62
(dp299
sg71
g284
sg64
(lp300
g57
(g58
g59
NtRp301
(dp302
g62
(dp303
g70
I3
ssg71
g297
sg64
(lp304
S''
asbasbasbag57
(g73
g59
NtRp305
(dp306
g62
(dp307
sg71
g259
sg64
(lp308
g57
(g78
g59
NtRp309
(dp310
g62
(dp311
g82
g83
ssg71
g305
sg64
(lp312
S'expires'
p313
asbag57
(g78
g59
NtRp314
(dp315
g62
(dp316
g89
g90
ssg71
g305
sg64
(lp317
S':'
asbag57
(g78
g59
NtRp318
(dp319
g62
(dp320
sg71
g305
sg64
(lp321
g57
(g58
g59
NtRp322
(dp323
g62
(dp324
g70
I3
ssg71
g318
sg64
(lp325
S''
asbasbasbag57
(g73
g59
NtRp326
(dp327
g62
(dp328
sg71
g259
sg64
(lp329
g57
(g78
g59
NtRp330
(dp331
g62
(dp332
g82
g83
ssg71
g326
sg64
(lp333
S'httponly'
p334
asbag57
(g78
g59
NtRp335
(dp336
g62
(dp337
g89
g90
ssg71
g326
sg64
(lp338
S':'
asbag57
(g78
g59
NtRp339
(dp340
g62
(dp341
sg71
g326
sg64
(lp342
g57
(g58
g59
NtRp343
(dp344
g62
(dp345
g70
I3
ssg71
g339
sg64
(lp346
S''
asbasbasbag57
(g73
g59
NtRp347
(dp348
g62
(dp349
sg71
g259
sg64
(lp350
g57
(g78
g59
NtRp351
(dp352
g62
(dp353
g82
g83
ssg71
g347
sg64
(lp354
S'max-age'
p355
asbag57
(g78
g59
NtRp356
(dp357
g62
(dp358
g89
g90
ssg71
g347
sg64
(lp359
S':'
asbag57
(g78
g59
NtRp360
(dp361
g62
(dp362
sg71
g347
sg64
(lp363
g57
(g58
g59
NtRp364
(dp365
g62
(dp366
g70
I3
ssg71
g360
sg64
(lp367
S''
asbasbasbag57
(g73
g59
NtRp368
(dp369
g62
(dp370
sg71
g259
sg64
(lp371
g57
(g78
g59
NtRp372
(dp373
g62
(dp374
g82
g83
ssg71
g368
sg64
(lp375
S'path'
p376
asbag57
(g78
g59
NtRp377
(dp378
g62
(dp379
g89
g90
ssg71
g368
sg64
(lp380
S':'
asbag57
(g78
g59
NtRp381
(dp382
g62
(dp383
sg71
g368
sg64
(lp384
g57
(g58
g59
NtRp385
(dp386
g62
(dp387
g70
I3
ssg71
g381
sg64
(lp388
S''
asbasbasbag57
(g73
g59
NtRp389
(dp390
g62
(dp391
sg71
g259
sg64
(lp392
g57
(g78
g59
NtRp393
(dp394
g62
(dp395
g82
g83
ssg71
g389
sg64
(lp396
S'secure'
p397
asbag57
(g78
g59
NtRp398
(dp399
g62
(dp400
g89
g90
ssg71
g389
sg64
(lp401
S':'
asbag57
(g78
g59
NtRp402
(dp403
g62
(dp404
sg71
g389
sg64
(lp405
g57
(g58
g59
NtRp406
(dp407
g62
(dp408
g70
I3
ssg71
g402
sg64
(lp409
S''
asbasbasbag57
(g73
g59
NtRp410
(dp411
g62
(dp412
sg71
g259
sg64
(lp413
g57
(g78
g59
NtRp414
(dp415
g62
(dp416
g82
g83
ssg71
g410
sg64
(lp417
S'version'
p418
asbag57
(g78
g59
NtRp419
(dp420
g62
(dp421
g89
g90
ssg71
g410
sg64
(lp422
S':'
asbag57
(g78
g59
NtRp423
(dp424
g62
(dp425
sg71
g410
sg64
(lp426
g57
(g58
g59
NtRp427
(dp428
g62
(dp429
g70
I3
ssg71
g423
sg64
(lp430
S''
asbasbasbasbasbasbasbasbasbasbasbag57
(g73
g59
NtRp431
(dp432
g62
(dp433
sg71
g67
sg64
(lp434
g57
(g78
g59
NtRp435
(dp436
g62
(dp437
g82
g83
ssg71
g431
sg64
(lp438
S'env'
p439
asbag57
(g78
g59
NtRp440
(dp441
g62
(dp442
g89
g90
ssg71
g431
sg64
(lp443
S':'
asbag57
(g78
g59
NtRp444
(dp445
g62
(dp446
sg71
g431
sg64
(lp447
g57
(g58
g59
NtRp448
(dp449
g62
(dp450
g70
I5
ssg71
g444
sg64
(lp451
g57
(g66
g59
NtRp452
(dp453
g62
(dp454
g70
I4
ssg71
Nsg64
(lp455
g57
(g73
g59
NtRp456
(dp457
g62
(dp458
sg71
g452
sg64
(lp459
g57
(g78
g59
NtRp460
(dp461
g62
(dp462
g82
g83
ssg71
g456
sg64
(lp463
S'app_folders'
p464
asbag57
(g78
g59
NtRp465
(dp466
g62
(dp467
g89
g90
ssg71
g456
sg64
(lp468
S':'
asbag57
(g78
g59
NtRp469
(dp470
g62
(dp471
sg71
g456
sg64
(lp472
g57
(g58
g59
NtRp473
(dp474
g62
(dp475
g70
I4
ssg71
g469
sg64
(lp476
S"set(['/home/jpr/Source/web2py/applications/admin/', '/home/jpr/Source/web2py/applications/Inventory/', '/home/jpr/Source/web2py/applications/welcome/'])"
p477
asbasbasbag57
(g73
g59
NtRp478
(dp479
g62
(dp480
sg71
g452
sg64
(lp481
g57
(g78
g59
NtRp482
(dp483
g62
(dp484
g82
g83
ssg71
g478
sg64
(lp485
S'applications_parent'
p486
asbag57
(g78
g59
NtRp487
(dp488
g62
(dp489
g89
g90
ssg71
g478
sg64
(lp490
S':'
asbag57
(g78
g59
NtRp491
(dp492
g62
(dp493
sg71
g478
sg64
(lp494
g57
(g58
g59
NtRp495
(dp496
g62
(dp497
g70
I4
ssg71
g491
sg64
(lp498
S'/home/jpr/Source/web2py'
p499
asbasbasbag57
(g73
g59
NtRp500
(dp501
g62
(dp502
sg71
g452
sg64
(lp503
g57
(g78
g59
NtRp504
(dp505
g62
(dp506
g82
g83
ssg71
g500
sg64
(lp507
S'cmd_args'
p508
asbag57
(g78
g59
NtRp509
(dp510
g62
(dp511
g89
g90
ssg71
g500
sg64
(lp512
S':'
asbag57
(g78
g59
NtRp513
(dp514
g62
(dp515
sg71
g500
sg64
(lp516
g57
(g58
g59
NtRp517
(dp518
g62
(dp519
g70
I4
ssg71
g513
sg64
(lp520
g57
(g66
g59
NtRp521
(dp522
g62
(dp523
g70
I3
ssg71
Nsg64
(lp524
sbasbasbasbag57
(g73
g59
NtRp525
(dp526
g62
(dp527
sg71
g452
sg64
(lp528
g57
(g78
g59
NtRp529
(dp530
g62
(dp531
g82
g83
ssg71
g525
sg64
(lp532
S'cmd_options'
p533
asbag57
(g78
g59
NtRp534
(dp535
g62
(dp536
g89
g90
ssg71
g525
sg64
(lp537
S':'
asbag57
(g78
g59
NtRp538
(dp539
g62
(dp540
sg71
g525
sg64
(lp541
g57
(g58
g59
NtRp542
(dp543
g62
(dp544
g70
I4
ssg71
g538
sg64
(lp545
S"<Values at 0x947504c: {'verbose': False, 'ip': '127.0.0.1', 'shutdown_timeout': 5, 'taskbar': False, 'nocron': False, 'pid_filename': 'httpserver.pid', 'maxthreads': None, 'softcron': False, 'server_name': 'Kserver', 'bpython': False, 'nogui': False, 'port': 8000, 'extcron': False, 'debuglevel': 30, 'test': None, 'folder': '/home/jpr/Source/web2py', 'config': '', 'import_models': False, 'winservice': '', 'shell': None, 'run': '', 'log_filename': 'httpserver.log', 'args': [''], 'socket_timeout': 5, 'ssl_ca_certificate': None, 'scheduler': None, 'profiler_filename': None, 'ssl_private_key': '', 'password': '<ask>', 'request_queue_size': 5, 'ssl_certificate': '', 'cronjob': False, 'numthreads': None, 'quiet': False, 'interfaces': None, 'minthreads': None, 'timeout': 10, 'plain': False, 'nobanner': False}>"
p546
asbasbasbag57
(g73
g59
NtRp547
(dp548
g62
(dp549
sg71
g452
sg64
(lp550
g57
(g78
g59
NtRp551
(dp552
g62
(dp553
g82
g83
ssg71
g547
sg64
(lp554
S'db_sessions'
p555
asbag57
(g78
g59
NtRp556
(dp557
g62
(dp558
g89
g90
ssg71
g547
sg64
(lp559
S':'
asbag57
(g78
g59
NtRp560
(dp561
g62
(dp562
sg71
g547
sg64
(lp563
g57
(g58
g59
NtRp564
(dp565
g62
(dp566
g70
I4
ssg71
g560
sg64
(lp567
S'set([])'
p568
asbasbasbag57
(g73
g59
NtRp569
(dp570
g62
(dp571
sg71
g452
sg64
(lp572
g57
(g78
g59
NtRp573
(dp574
g62
(dp575
g82
g83
ssg71
g569
sg64
(lp576
S'debugging'
p577
asbag57
(g78
g59
NtRp578
(dp579
g62
(dp580
g89
g90
ssg71
g569
sg64
(lp581
S':'
asbag57
(g78
g59
NtRp582
(dp583
g62
(dp584
sg71
g569
sg64
(lp585
g57
(g58
g59
NtRp586
(dp587
g62
(dp588
g70
I4
ssg71
g582
sg64
(lp589
g100
asbasbasbag57
(g73
g59
NtRp590
(dp591
g62
(dp592
sg71
g452
sg64
(lp593
g57
(g78
g59
NtRp594
(dp595
g62
(dp596
g82
g83
ssg71
g590
sg64
(lp597
S'gluon_parent'
p598
asbag57
(g78
g59
NtRp599
(dp600
g62
(dp601
g89
g90
ssg71
g590
sg64
(lp602
S':'
asbag57
(g78
g59
NtRp603
(dp604
g62
(dp605
sg71
g590
sg64
(lp606
g57
(g58
g59
NtRp607
(dp608
g62
(dp609
g70
I4
ssg71
g603
sg64
(lp610
S'/home/jpr/Source/web2py'
p611
asbasbasbag57
(g73
g59
NtRp612
(dp613
g62
(dp614
sg71
g452
sg64
(lp615
g57
(g78
g59
NtRp616
(dp617
g62
(dp618
g82
g83
ssg71
g612
sg64
(lp619
S'http_accept'
p620
asbag57
(g78
g59
NtRp621
(dp622
g62
(dp623
g89
g90
ssg71
g612
sg64
(lp624
S':'
asbag57
(g78
g59
NtRp625
(dp626
g62
(dp627
sg71
g612
sg64
(lp628
g57
(g58
g59
NtRp629
(dp630
g62
(dp631
g70
I4
ssg71
g625
sg64
(lp632
S'text/html,application/xhtml+xml,application/xml;q=0.9,*/*;q=0.8'
p633
asbasbasbag57
(g73
g59
NtRp634
(dp635
g62
(dp636
sg71
g452
sg64
(lp637
g57
(g78
g59
NtRp638
(dp639
g62
(dp640
g82
g83
ssg71
g634
sg64
(lp641
S'http_accept_encoding'
p642
asbag57
(g78
g59
NtRp643
(dp644
g62
(dp645
g89
g90
ssg71
g634
sg64
(lp646
S':'
asbag57
(g78
g59
NtRp647
(dp648
g62
(dp649
sg71
g634
sg64
(lp650
g57
(g58
g59
NtRp651
(dp652
g62
(dp653
g70
I4
ssg71
g647
sg64
(lp654
S'gzip, deflate'
p655
asbasbasbag57
(g73
g59
NtRp656
(dp657
g62
(dp658
sg71
g452
sg64
(lp659
g57
(g78
g59
NtRp660
(dp661
g62
(dp662
g82
g83
ssg71
g656
sg64
(lp663
S'http_accept_language'
p664
asbag57
(g78
g59
NtRp665
(dp666
g62
(dp667
g89
g90
ssg71
g656
sg64
(lp668
S':'
asbag57
(g78
g59
NtRp669
(dp670
g62
(dp671
sg71
g656
sg64
(lp672
g57
(g58
g59
NtRp673
(dp674
g62
(dp675
g70
I4
ssg71
g669
sg64
(lp676
S'en-us,en;q=0.5'
p677
asbasbasbag57
(g73
g59
NtRp678
(dp679
g62
(dp680
sg71
g452
sg64
(lp681
g57
(g78
g59
NtRp682
(dp683
g62
(dp684
g82
g83
ssg71
g678
sg64
(lp685
S'http_connection'
p686
asbag57
(g78
g59
NtRp687
(dp688
g62
(dp689
g89
g90
ssg71
g678
sg64
(lp690
S':'
asbag57
(g78
g59
NtRp691
(dp692
g62
(dp693
sg71
g678
sg64
(lp694
g57
(g58
g59
NtRp695
(dp696
g62
(dp697
g70
I4
ssg71
g691
sg64
(lp698
S'keep-alive'
p699
asbasbasbag57
(g73
g59
NtRp700
(dp701
g62
(dp702
sg71
g452
sg64
(lp703
g57
(g78
g59
NtRp704
(dp705
g62
(dp706
g82
g83
ssg71
g700
sg64
(lp707
S'http_cookie'
p708
asbag57
(g78
g59
NtRp709
(dp710
g62
(dp711
g89
g90
ssg71
g700
sg64
(lp712
S':'
asbag57
(g78
g59
NtRp713
(dp714
g62
(dp715
sg71
g700
sg64
(lp716
g57
(g58
g59
NtRp717
(dp718
g62
(dp719
g70
I4
ssg71
g713
sg64
(lp720
S'session_id_admin=127.0.0.1-8280617c-76c1-4d40-9605-60551e781e9b'
p721
asbasbasbag57
(g73
g59
NtRp722
(dp723
g62
(dp724
sg71
g452
sg64
(lp725
g57
(g78
g59
NtRp726
(dp727
g62
(dp728
g82
g83
ssg71
g722
sg64
(lp729
S'http_host'
p730
asbag57
(g78
g59
NtRp731
(dp732
g62
(dp733
g89
g90
ssg71
g722
sg64
(lp734
S':'
asbag57
(g78
g59
NtRp735
(dp736
g62
(dp737
sg71
g722
sg64
(lp738
g57
(g58
g59
NtRp739
(dp740
g62
(dp741
g70
I4
ssg71
g735
sg64
(lp742
S'localhost:8000'
p743
asbasbasbag57
(g73
g59
NtRp744
(dp745
g62
(dp746
sg71
g452
sg64
(lp747
g57
(g78
g59
NtRp748
(dp749
g62
(dp750
g82
g83
ssg71
g744
sg64
(lp751
S'http_referer'
p752
asbag57
(g78
g59
NtRp753
(dp754
g62
(dp755
g89
g90
ssg71
g744
sg64
(lp756
S':'
asbag57
(g78
g59
NtRp757
(dp758
g62
(dp759
sg71
g744
sg64
(lp760
g57
(g58
g59
NtRp761
(dp762
g62
(dp763
g70
I4
ssg71
g757
sg64
(lp764
S'http://localhost:8000/admin/default/design/Inventory'
p765
asbasbasbag57
(g73
g59
NtRp766
(dp767
g62
(dp768
sg71
g452
sg64
(lp769
g57
(g78
g59
NtRp770
(dp771
g62
(dp772
g82
g83
ssg71
g766
sg64
(lp773
S'http_user_agent'
p774
asbag57
(g78
g59
NtRp775
(dp776
g62
(dp777
g89
g90
ssg71
g766
sg64
(lp778
S':'
asbag57
(g78
g59
NtRp779
(dp780
g62
(dp781
sg71
g766
sg64
(lp782
g57
(g58
g59
NtRp783
(dp784
g62
(dp785
g70
I4
ssg71
g779
sg64
(lp786
S'Mozilla/5.0 (X11; Ubuntu; Linux i686; rv:14.0) Gecko/20100101 Firefox/14.0.1'
p787
asbasbasbag57
(g73
g59
NtRp788
(dp789
g62
(dp790
sg71
g452
sg64
(lp791
g57
(g78
g59
NtRp792
(dp793
g62
(dp794
g82
g83
ssg71
g788
sg64
(lp795
S'is_jython'
p796
asbag57
(g78
g59
NtRp797
(dp798
g62
(dp799
g89
g90
ssg71
g788
sg64
(lp800
S':'
asbag57
(g78
g59
NtRp801
(dp802
g62
(dp803
sg71
g788
sg64
(lp804
g57
(g58
g59
NtRp805
(dp806
g62
(dp807
g70
I4
ssg71
g801
sg64
(lp808
g100
asbasbasbag57
(g73
g59
NtRp809
(dp810
g62
(dp811
sg71
g452
sg64
(lp812
g57
(g78
g59
NtRp813
(dp814
g62
(dp815
g82
g83
ssg71
g809
sg64
(lp816
S'is_pypy'
p817
asbag57
(g78
g59
NtRp818
(dp819
g62
(dp820
g89
g90
ssg71
g809
sg64
(lp821
S':'
asbag57
(g78
g59
NtRp822
(dp823
g62
(dp824
sg71
g809
sg64
(lp825
g57
(g58
g59
NtRp826
(dp827
g62
(dp828
g70
I4
ssg71
g822
sg64
(lp829
g100
asbasbasbag57
(g73
g59
NtRp830
(dp831
g62
(dp832
sg71
g452
sg64
(lp833
g57
(g78
g59
NtRp834
(dp835
g62
(dp836
g82
g83
ssg71
g830
sg64
(lp837
S'path_info'
p838
asbag57
(g78
g59
NtRp839
(dp840
g62
(dp841
g89
g90
ssg71
g830
sg64
(lp842
S':'
asbag57
(g78
g59
NtRp843
(dp844
g62
(dp845
sg71
g830
sg64
(lp846
g57
(g58
g59
NtRp847
(dp848
g62
(dp849
g70
I4
ssg71
g843
sg64
(lp850
S'/Inventory/qrinv/enter_inventory'
p851
asbasbasbag57
(g73
g59
NtRp852
(dp853
g62
(dp854
sg71
g452
sg64
(lp855
g57
(g78
g59
NtRp856
(dp857
g62
(dp858
g82
g83
ssg71
g852
sg64
(lp859
S'query_string'
p860
asbag57
(g78
g59
NtRp861
(dp862
g62
(dp863
g89
g90
ssg71
g852
sg64
(lp864
S':'
asbag57
(g78
g59
NtRp865
(dp866
g62
(dp867
sg71
g852
sg64
(lp868
g57
(g58
g59
NtRp869
(dp870
g62
(dp871
g70
I4
ssg71
g865
sg64
(lp872
S''
asbasbasbag57
(g73
g59
NtRp873
(dp874
g62
(dp875
sg71
g452
sg64
(lp876
g57
(g78
g59
NtRp877
(dp878
g62
(dp879
g82
g83
ssg71
g873
sg64
(lp880
S'remote_addr'
p881
asbag57
(g78
g59
NtRp882
(dp883
g62
(dp884
g89
g90
ssg71
g873
sg64
(lp885
S':'
asbag57
(g78
g59
NtRp886
(dp887
g62
(dp888
sg71
g873
sg64
(lp889
g57
(g58
g59
NtRp890
(dp891
g62
(dp892
g70
I4
ssg71
g886
sg64
(lp893
g190
asbasbasbag57
(g73
g59
NtRp894
(dp895
g62
(dp896
sg71
g452
sg64
(lp897
g57
(g78
g59
NtRp898
(dp899
g62
(dp900
g82
g83
ssg71
g894
sg64
(lp901
S'remote_port'
p902
asbag57
(g78
g59
NtRp903
(dp904
g62
(dp905
g89
g90
ssg71
g894
sg64
(lp906
S':'
asbag57
(g78
g59
NtRp907
(dp908
g62
(dp909
sg71
g894
sg64
(lp910
g57
(g58
g59
NtRp911
(dp912
g62
(dp913
g70
I4
ssg71
g907
sg64
(lp914
S'55010'
p915
asbasbasbag57
(g73
g59
NtRp916
(dp917
g62
(dp918
sg71
g452
sg64
(lp919
g57
(g78
g59
NtRp920
(dp921
g62
(dp922
g82
g83
ssg71
g916
sg64
(lp923
S'request_method'
p924
asbag57
(g78
g59
NtRp925
(dp926
g62
(dp927
g89
g90
ssg71
g916
sg64
(lp928
S':'
asbag57
(g78
g59
NtRp929
(dp930
g62
(dp931
sg71
g916
sg64
(lp932
g57
(g58
g59
NtRp933
(dp934
g62
(dp935
g70
I4
ssg71
g929
sg64
(lp936
S'GET'
p937
asbasbasbag57
(g73
g59
NtRp938
(dp939
g62
(dp940
sg71
g452
sg64
(lp941
g57
(g78
g59
NtRp942
(dp943
g62
(dp944
g82
g83
ssg71
g938
sg64
(lp945
S'script_name'
p946
asbag57
(g78
g59
NtRp947
(dp948
g62
(dp949
g89
g90
ssg71
g938
sg64
(lp950
S':'
asbag57
(g78
g59
NtRp951
(dp952
g62
(dp953
sg71
g938
sg64
(lp954
g57
(g58
g59
NtRp955
(dp956
g62
(dp957
g70
I4
ssg71
g951
sg64
(lp958
S''
asbasbasbag57
(g73
g59
NtRp959
(dp960
g62
(dp961
sg71
g452
sg64
(lp962
g57
(g78
g59
NtRp963
(dp964
g62
(dp965
g82
g83
ssg71
g959
sg64
(lp966
S'server_name'
p967
asbag57
(g78
g59
NtRp968
(dp969
g62
(dp970
g89
g90
ssg71
g959
sg64
(lp971
S':'
asbag57
(g78
g59
NtRp972
(dp973
g62
(dp974
sg71
g959
sg64
(lp975
g57
(g58
g59
NtRp976
(dp977
g62
(dp978
g70
I4
ssg71
g972
sg64
(lp979
S'Kserver'
p980
asbasbasbag57
(g73
g59
NtRp981
(dp982
g62
(dp983
sg71
g452
sg64
(lp984
g57
(g78
g59
NtRp985
(dp986
g62
(dp987
g82
g83
ssg71
g981
sg64
(lp988
S'server_port'
p989
asbag57
(g78
g59
NtRp990
(dp991
g62
(dp992
g89
g90
ssg71
g981
sg64
(lp993
S':'
asbag57
(g78
g59
NtRp994
(dp995
g62
(dp996
sg71
g981
sg64
(lp997
g57
(g58
g59
NtRp998
(dp999
g62
(dp1000
g70
I4
ssg71
g994
sg64
(lp1001
S'8000'
p1002
asbasbasbag57
(g73
g59
NtRp1003
(dp1004
g62
(dp1005
sg71
g452
sg64
(lp1006
g57
(g78
g59
NtRp1007
(dp1008
g62
(dp1009
g82
g83
ssg71
g1003
sg64
(lp1010
S'server_protocol'
p1011
asbag57
(g78
g59
NtRp1012
(dp1013
g62
(dp1014
g89
g90
ssg71
g1003
sg64
(lp1015
S':'
asbag57
(g78
g59
NtRp1016
(dp1017
g62
(dp1018
sg71
g1003
sg64
(lp1019
g57
(g58
g59
NtRp1020
(dp1021
g62
(dp1022
g70
I4
ssg71
g1016
sg64
(lp1023
S'HTTP/1.1'
p1024
asbasbasbag57
(g73
g59
NtRp1025
(dp1026
g62
(dp1027
sg71
g452
sg64
(lp1028
g57
(g78
g59
NtRp1029
(dp1030
g62
(dp1031
g82
g83
ssg71
g1025
sg64
(lp1032
S'server_software'
p1033
asbag57
(g78
g59
NtRp1034
(dp1035
g62
(dp1036
g89
g90
ssg71
g1025
sg64
(lp1037
S':'
asbag57
(g78
g59
NtRp1038
(dp1039
g62
(dp1040
sg71
g1025
sg64
(lp1041
g57
(g58
g59
NtRp1042
(dp1043
g62
(dp1044
g70
I4
ssg71
g1038
sg64
(lp1045
S'Rocket 1.2.4'
p1046
asbasbasbag57
(g73
g59
NtRp1047
(dp1048
g62
(dp1049
sg71
g452
sg64
(lp1050
g57
(g78
g59
NtRp1051
(dp1052
g62
(dp1053
g82
g83
ssg71
g1047
sg64
(lp1054
S'web2py_crontype'
p1055
asbag57
(g78
g59
NtRp1056
(dp1057
g62
(dp1058
g89
g90
ssg71
g1047
sg64
(lp1059
S':'
asbag57
(g78
g59
NtRp1060
(dp1061
g62
(dp1062
sg71
g1047
sg64
(lp1063
g57
(g58
g59
NtRp1064
(dp1065
g62
(dp1066
g70
I4
ssg71
g1060
sg64
(lp1067
S'hard'
p1068
asbasbasbag57
(g73
g59
NtRp1069
(dp1070
g62
(dp1071
sg71
g452
sg64
(lp1072
g57
(g78
g59
NtRp1073
(dp1074
g62
(dp1075
g82
g83
ssg71
g1069
sg64
(lp1076
S'web2py_path'
p1077
asbag57
(g78
g59
NtRp1078
(dp1079
g62
(dp1080
g89
g90
ssg71
g1069
sg64
(lp1081
S':'
asbag57
(g78
g59
NtRp1082
(dp1083
g62
(dp1084
sg71
g1069
sg64
(lp1085
g57
(g58
g59
NtRp1086
(dp1087
g62
(dp1088
g70
I4
ssg71
g1082
sg64
(lp1089
g499
asbasbasbag57
(g73
g59
NtRp1090
(dp1091
g62
(dp1092
sg71
g452
sg64
(lp1093
g57
(g78
g59
NtRp1094
(dp1095
g62
(dp1096
g82
g83
ssg71
g1090
sg64
(lp1097
S'web2py_version'
p1098
asbag57
(g78
g59
NtRp1099
(dp1100
g62
(dp1101
g89
g90
ssg71
g1090
sg64
(lp1102
S':'
asbag57
(g78
g59
NtRp1103
(dp1104
g62
(dp1105
sg71
g1090
sg64
(lp1106
g57
(g58
g59
NtRp1107
(dp1108
g62
(dp1109
g70
I4
ssg71
g1103
sg64
(lp1110
g57
(g66
g59
NtRp1111
(dp1112
g62
(dp1113
g70
I3
ssg71
Nsg64
(lp1114
g57
(g73
g59
NtRp1115
(dp1116
g62
(dp1117
sg71
g1111
sg64
(lp1118
g57
(g78
g59
NtRp1119
(dp1120
g62
(dp1121
sg71
g1115
sg64
(lp1122
g57
(g58
g59
NtRp1123
(dp1124
g62
(dp1125
g70
I3
ssg71
g1119
sg64
(lp1126
S'1'
asbasbasbag57
(g73
g59
NtRp1127
(dp1128
g62
(dp1129
sg71
g1111
sg64
(lp1130
g57
(g78
g59
NtRp1131
(dp1132
g62
(dp1133
sg71
g1127
sg64
(lp1134
g57
(g58
g59
NtRp1135
(dp1136
g62
(dp1137
g70
I3
ssg71
g1131
sg64
(lp1138
S'99'
p1139
asbasbasbag57
(g73
g59
NtRp1140
(dp1141
g62
(dp1142
sg71
g1111
sg64
(lp1143
g57
(g78
g59
NtRp1144
(dp1145
g62
(dp1146
sg71
g1140
sg64
(lp1147
g57
(g58
g59
NtRp1148
(dp1149
g62
(dp1150
g70
I3
ssg71
g1144
sg64
(lp1151
S'7'
asbasbasbag57
(g73
g59
NtRp1152
(dp1153
g62
(dp1154
sg71
g1111
sg64
(lp1155
g57
(g78
g59
NtRp1156
(dp1157
g62
(dp1158
sg71
g1152
sg64
(lp1159
g57
(g58
g59
NtRp1160
(dp1161
g62
(dp1162
g70
I3
ssg71
g1156
sg64
(lp1163
S'datetime.datetime(2012, 3, 4, 22, 12, 8)'
p1164
asbasbasbag57
(g73
g59
NtRp1165
(dp1166
g62
(dp1167
sg71
g1111
sg64
(lp1168
g57
(g78
g59
NtRp1169
(dp1170
g62
(dp1171
sg71
g1165
sg64
(lp1172
g57
(g58
g59
NtRp1173
(dp1174
g62
(dp1175
g70
I3
ssg71
g1169
sg64
(lp1176
S'stable'
p1177
asbasbasbasbasbasbasbag57
(g73
g59
NtRp1178
(dp1179
g62
(dp1180
sg71
g452
sg64
(lp1181
g57
(g78
g59
NtRp1182
(dp1183
g62
(dp1184
g82
g83
ssg71
g1178
sg64
(lp1185
S'wsgi_errors'
p1186
asbag57
(g78
g59
NtRp1187
(dp1188
g62
(dp1189
g89
g90
ssg71
g1178
sg64
(lp1190
S':'
asbag57
(g78
g59
NtRp1191
(dp1192
g62
(dp1193
sg71
g1178
sg64
(lp1194
g57
(g58
g59
NtRp1195
(dp1196
g62
(dp1197
g70
I4
ssg71
g1191
sg64
(lp1198
S"<open file '<stderr>', mode 'w' at 0xb78a60d0>"
p1199
asbasbasbag57
(g73
g59
NtRp1200
(dp1201
g62
(dp1202
sg71
g452
sg64
(lp1203
g57
(g78
g59
NtRp1204
(dp1205
g62
(dp1206
g82
g83
ssg71
g1200
sg64
(lp1207
S'wsgi_file_wrapper'
p1208
asbag57
(g78
g59
NtRp1209
(dp1210
g62
(dp1211
g89
g90
ssg71
g1200
sg64
(lp1212
S':'
asbag57
(g78
g59
NtRp1213
(dp1214
g62
(dp1215
sg71
g1200
sg64
(lp1216
g57
(g58
g59
NtRp1217
(dp1218
g62
(dp1219
g70
I4
ssg71
g1213
sg64
(lp1220
S'<class wsgiref.util.FileWrapper at 0x932fc8c>'
p1221
asbasbasbag57
(g73
g59
NtRp1222
(dp1223
g62
(dp1224
sg71
g452
sg64
(lp1225
g57
(g78
g59
NtRp1226
(dp1227
g62
(dp1228
g82
g83
ssg71
g1222
sg64
(lp1229
S'wsgi_input'
p1230
asbag57
(g78
g59
NtRp1231
(dp1232
g62
(dp1233
g89
g90
ssg71
g1222
sg64
(lp1234
S':'
asbag57
(g78
g59
NtRp1235
(dp1236
g62
(dp1237
sg71
g1222
sg64
(lp1238
g57
(g58
g59
NtRp1239
(dp1240
g62
(dp1241
g70
I4
ssg71
g1235
sg64
(lp1242
S'<socket._fileobject object at 0x9d0546c>'
p1243
asbasbasbag57
(g73
g59
NtRp1244
(dp1245
g62
(dp1246
sg71
g452
sg64
(lp1247
g57
(g78
g59
NtRp1248
(dp1249
g62
(dp1250
g82
g83
ssg71
g1244
sg64
(lp1251
S'wsgi_multiprocess'
p1252
asbag57
(g78
g59
NtRp1253
(dp1254
g62
(dp1255
g89
g90
ssg71
g1244
sg64
(lp1256
S':'
asbag57
(g78
g59
NtRp1257
(dp1258
g62
(dp1259
sg71
g1244
sg64
(lp1260
g57
(g58
g59
NtRp1261
(dp1262
g62
(dp1263
g70
I4
ssg71
g1257
sg64
(lp1264
g100
asbasbasbag57
(g73
g59
NtRp1265
(dp1266
g62
(dp1267
sg71
g452
sg64
(lp1268
g57
(g78
g59
NtRp1269
(dp1270
g62
(dp1271
g82
g83
ssg71
g1265
sg64
(lp1272
S'wsgi_multithread'
p1273
asbag57
(g78
g59
NtRp1274
(dp1275
g62
(dp1276
g89
g90
ssg71
g1265
sg64
(lp1277
S':'
asbag57
(g78
g59
NtRp1278
(dp1279
g62
(dp1280
sg71
g1265
sg64
(lp1281
g57
(g58
g59
NtRp1282
(dp1283
g62
(dp1284
g70
I4
ssg71
g1278
sg64
(lp1285
S'True'
p1286
asbasbasbag57
(g73
g59
NtRp1287
(dp1288
g62
(dp1289
sg71
g452
sg64
(lp1290
g57
(g78
g59
NtRp1291
(dp1292
g62
(dp1293
g82
g83
ssg71
g1287
sg64
(lp1294
S'wsgi_run_once'
p1295
asbag57
(g78
g59
NtRp1296
(dp1297
g62
(dp1298
g89
g90
ssg71
g1287
sg64
(lp1299
S':'
asbag57
(g78
g59
NtRp1300
(dp1301
g62
(dp1302
sg71
g1287
sg64
(lp1303
g57
(g58
g59
NtRp1304
(dp1305
g62
(dp1306
g70
I4
ssg71
g1300
sg64
(lp1307
g100
asbasbasbag57
(g73
g59
NtRp1308
(dp1309
g62
(dp1310
sg71
g452
sg64
(lp1311
g57
(g78
g59
NtRp1312
(dp1313
g62
(dp1314
g82
g83
ssg71
g1308
sg64
(lp1315
S'wsgi_url_scheme'
p1316
asbag57
(g78
g59
NtRp1317
(dp1318
g62
(dp1319
g89
g90
ssg71
g1308
sg64
(lp1320
S':'
asbag57
(g78
g59
NtRp1321
(dp1322
g62
(dp1323
sg71
g1308
sg64
(lp1324
g57
(g58
g59
NtRp1325
(dp1326
g62
(dp1327
g70
I4
ssg71
g1321
sg64
(lp1328
S'http'
p1329
asbasbasbag57
(g73
g59
NtRp1330
(dp1331
g62
(dp1332
sg71
g452
sg64
(lp1333
g57
(g78
g59
NtRp1334
(dp1335
g62
(dp1336
g82
g83
ssg71
g1330
sg64
(lp1337
S'wsgi_version'
p1338
asbag57
(g78
g59
NtRp1339
(dp1340
g62
(dp1341
g89
g90
ssg71
g1330
sg64
(lp1342
S':'
asbag57
(g78
g59
NtRp1343
(dp1344
g62
(dp1345
sg71
g1330
sg64
(lp1346
g57
(g58
g59
NtRp1347
(dp1348
g62
(dp1349
g70
I4
ssg71
g1343
sg64
(lp1350
g57
(g66
g59
NtRp1351
(dp1352
g62
(dp1353
g70
I3
ssg71
Nsg64
(lp1354
g57
(g73
g59
NtRp1355
(dp1356
g62
(dp1357
sg71
g1351
sg64
(lp1358
g57
(g78
g59
NtRp1359
(dp1360
g62
(dp1361
sg71
g1355
sg64
(lp1362
g57
(g58
g59
NtRp1363
(dp1364
g62
(dp1365
g70
I3
ssg71
g1359
sg64
(lp1366
S'1'
asbasbasbag57
(g73
g59
NtRp1367
(dp1368
g62
(dp1369
sg71
g1351
sg64
(lp1370
g57
(g78
g59
NtRp1371
(dp1372
g62
(dp1373
sg71
g1367
sg64
(lp1374
g57
(g58
g59
NtRp1375
(dp1376
g62
(dp1377
g70
I3
ssg71
g1371
sg64
(lp1378
S'0'
asbasbasbasbasbasbasbasbasbasbasbag57
(g73
g59
NtRp1379
(dp1380
g62
(dp1381
sg71
g67
sg64
(lp1382
g57
(g78
g59
NtRp1383
(dp1384
g62
(dp1385
g82
g83
ssg71
g1379
sg64
(lp1386
S'extension'
p1387
asbag57
(g78
g59
NtRp1388
(dp1389
g62
(dp1390
g89
g90
ssg71
g1379
sg64
(lp1391
S':'
asbag57
(g78
g59
NtRp1392
(dp1393
g62
(dp1394
sg71
g1379
sg64
(lp1395
g57
(g58
g59
NtRp1396
(dp1397
g62
(dp1398
g70
I5
ssg71
g1392
sg64
(lp1399
S'html'
p1400
asbasbasbag57
(g73
g59
NtRp1401
(dp1402
g62
(dp1403
sg71
g67
sg64
(lp1404
g57
(g78
g59
NtRp1405
(dp1406
g62
(dp1407
g82
g83
ssg71
g1401
sg64
(lp1408
S'folder'
p1409
asbag57
(g78
g59
NtRp1410
(dp1411
g62
(dp1412
g89
g90
ssg71
g1401
sg64
(lp1413
S':'
asbag57
(g78
g59
NtRp1414
(dp1415
g62
(dp1416
sg71
g1401
sg64
(lp1417
g57
(g58
g59
NtRp1418
(dp1419
g62
(dp1420
g70
I5
ssg71
g1414
sg64
(lp1421
S'/home/jpr/Source/web2py/applications/Inventory/'
p1422
asbasbasbag57
(g73
g59
NtRp1423
(dp1424
g62
(dp1425
sg71
g67
sg64
(lp1426
g57
(g78
g59
NtRp1427
(dp1428
g62
(dp1429
g82
g83
ssg71
g1423
sg64
(lp1430
S'function'
p1431
asbag57
(g78
g59
NtRp1432
(dp1433
g62
(dp1434
g89
g90
ssg71
g1423
sg64
(lp1435
S':'
asbag57
(g78
g59
NtRp1436
(dp1437
g62
(dp1438
sg71
g1423
sg64
(lp1439
g57
(g58
g59
NtRp1440
(dp1441
g62
(dp1442
g70
I5
ssg71
g1436
sg64
(lp1443
S'enter_inventory'
p1444
asbasbasbag57
(g73
g59
NtRp1445
(dp1446
g62
(dp1447
sg71
g67
sg64
(lp1448
g57
(g78
g59
NtRp1449
(dp1450
g62
(dp1451
g82
g83
ssg71
g1445
sg64
(lp1452
S'get_vars'
p1453
asbag57
(g78
g59
NtRp1454
(dp1455
g62
(dp1456
g89
g90
ssg71
g1445
sg64
(lp1457
S':'
asbag57
(g78
g59
NtRp1458
(dp1459
g62
(dp1460
sg71
g1445
sg64
(lp1461
g57
(g58
g59
NtRp1462
(dp1463
g62
(dp1464
g70
I5
ssg71
g1458
sg64
(lp1465
g57
(g66
g59
NtRp1466
(dp1467
g62
(dp1468
g70
I4
ssg71
Nsg64
(lp1469
sbasbasbasbag57
(g73
g59
NtRp1470
(dp1471
g62
(dp1472
sg71
g67
sg64
(lp1473
g57
(g78
g59
NtRp1474
(dp1475
g62
(dp1476
g82
g83
ssg71
g1470
sg64
(lp1477
S'global_settings'
p1478
asbag57
(g78
g59
NtRp1479
(dp1480
g62
(dp1481
g89
g90
ssg71
g1470
sg64
(lp1482
S':'
asbag57
(g78
g59
NtRp1483
(dp1484
g62
(dp1485
sg71
g1470
sg64
(lp1486
g57
(g58
g59
NtRp1487
(dp1488
g62
(dp1489
g70
I5
ssg71
g1483
sg64
(lp1490
g57
(g66
g59
NtRp1491
(dp1492
g62
(dp1493
g70
I4
ssg71
Nsg64
(lp1494
g57
(g73
g59
NtRp1495
(dp1496
g62
(dp1497
sg71
g1491
sg64
(lp1498
g57
(g78
g59
NtRp1499
(dp1500
g62
(dp1501
g82
g83
ssg71
g1495
sg64
(lp1502
g464
asbag57
(g78
g59
NtRp1503
(dp1504
g62
(dp1505
g89
g90
ssg71
g1495
sg64
(lp1506
S':'
asbag57
(g78
g59
NtRp1507
(dp1508
g62
(dp1509
sg71
g1495
sg64
(lp1510
g57
(g58
g59
NtRp1511
(dp1512
g62
(dp1513
g70
I4
ssg71
g1507
sg64
(lp1514
S"set(['/home/jpr/Source/web2py/applications/admin/', '/home/jpr/Source/web2py/applications/Inventory/', '/home/jpr/Source/web2py/applications/welcome/'])"
p1515
asbasbasbag57
(g73
g59
NtRp1516
(dp1517
g62
(dp1518
sg71
g1491
sg64
(lp1519
g57
(g78
g59
NtRp1520
(dp1521
g62
(dp1522
g82
g83
ssg71
g1516
sg64
(lp1523
g486
asbag57
(g78
g59
NtRp1524
(dp1525
g62
(dp1526
g89
g90
ssg71
g1516
sg64
(lp1527
S':'
asbag57
(g78
g59
NtRp1528
(dp1529
g62
(dp1530
sg71
g1516
sg64
(lp1531
g57
(g58
g59
NtRp1532
(dp1533
g62
(dp1534
g70
I4
ssg71
g1528
sg64
(lp1535
g499
asbasbasbag57
(g73
g59
NtRp1536
(dp1537
g62
(dp1538
sg71
g1491
sg64
(lp1539
g57
(g78
g59
NtRp1540
(dp1541
g62
(dp1542
g82
g83
ssg71
g1536
sg64
(lp1543
g508
asbag57
(g78
g59
NtRp1544
(dp1545
g62
(dp1546
g89
g90
ssg71
g1536
sg64
(lp1547
S':'
asbag57
(g78
g59
NtRp1548
(dp1549
g62
(dp1550
sg71
g1536
sg64
(lp1551
g57
(g58
g59
NtRp1552
(dp1553
g62
(dp1554
g70
I4
ssg71
g1548
sg64
(lp1555
g57
(g66
g59
NtRp1556
(dp1557
g62
(dp1558
g70
I3
ssg71
Nsg64
(lp1559
sbasbasbasbag57
(g73
g59
NtRp1560
(dp1561
g62
(dp1562
sg71
g1491
sg64
(lp1563
g57
(g78
g59
NtRp1564
(dp1565
g62
(dp1566
g82
g83
ssg71
g1560
sg64
(lp1567
g533
asbag57
(g78
g59
NtRp1568
(dp1569
g62
(dp1570
g89
g90
ssg71
g1560
sg64
(lp1571
S':'
asbag57
(g78
g59
NtRp1572
(dp1573
g62
(dp1574
sg71
g1560
sg64
(lp1575
g57
(g58
g59
NtRp1576
(dp1577
g62
(dp1578
g70
I4
ssg71
g1572
sg64
(lp1579
S"<Values at 0x947504c: {'verbose': False, 'ip': '127.0.0.1', 'shutdown_timeout': 5, 'taskbar': False, 'nocron': False, 'pid_filename': 'httpserver.pid', 'maxthreads': None, 'softcron': False, 'server_name': 'Kserver', 'bpython': False, 'nogui': False, 'port': 8000, 'extcron': False, 'debuglevel': 30, 'test': None, 'folder': '/home/jpr/Source/web2py', 'config': '', 'import_models': False, 'winservice': '', 'shell': None, 'run': '', 'log_filename': 'httpserver.log', 'args': [''], 'socket_timeout': 5, 'ssl_ca_certificate': None, 'scheduler': None, 'profiler_filename': None, 'ssl_private_key': '', 'password': '<ask>', 'request_queue_size': 5, 'ssl_certificate': '', 'cronjob': False, 'numthreads': None, 'quiet': False, 'interfaces': None, 'minthreads': None, 'timeout': 10, 'plain': False, 'nobanner': False}>"
p1580
asbasbasbag57
(g73
g59
NtRp1581
(dp1582
g62
(dp1583
sg71
g1491
sg64
(lp1584
g57
(g78
g59
NtRp1585
(dp1586
g62
(dp1587
g82
g83
ssg71
g1581
sg64
(lp1588
g555
asbag57
(g78
g59
NtRp1589
(dp1590
g62
(dp1591
g89
g90
ssg71
g1581
sg64
(lp1592
S':'
asbag57
(g78
g59
NtRp1593
(dp1594
g62
(dp1595
sg71
g1581
sg64
(lp1596
g57
(g58
g59
NtRp1597
(dp1598
g62
(dp1599
g70
I4
ssg71
g1593
sg64
(lp1600
S'set([])'
p1601
asbasbasbag57
(g73
g59
NtRp1602
(dp1603
g62
(dp1604
sg71
g1491
sg64
(lp1605
g57
(g78
g59
NtRp1606
(dp1607
g62
(dp1608
g82
g83
ssg71
g1602
sg64
(lp1609
g577
asbag57
(g78
g59
NtRp1610
(dp1611
g62
(dp1612
g89
g90
ssg71
g1602
sg64
(lp1613
S':'
asbag57
(g78
g59
NtRp1614
(dp1615
g62
(dp1616
sg71
g1602
sg64
(lp1617
g57
(g58
g59
NtRp1618
(dp1619
g62
(dp1620
g70
I4
ssg71
g1614
sg64
(lp1621
g100
asbasbasbag57
(g73
g59
NtRp1622
(dp1623
g62
(dp1624
sg71
g1491
sg64
(lp1625
g57
(g78
g59
NtRp1626
(dp1627
g62
(dp1628
g82
g83
ssg71
g1622
sg64
(lp1629
g598
asbag57
(g78
g59
NtRp1630
(dp1631
g62
(dp1632
g89
g90
ssg71
g1622
sg64
(lp1633
S':'
asbag57
(g78
g59
NtRp1634
(dp1635
g62
(dp1636
sg71
g1622
sg64
(lp1637
g57
(g58
g59
NtRp1638
(dp1639
g62
(dp1640
g70
I4
ssg71
g1634
sg64
(lp1641
g611
asbasbasbag57
(g73
g59
NtRp1642
(dp1643
g62
(dp1644
sg71
g1491
sg64
(lp1645
g57
(g78
g59
NtRp1646
(dp1647
g62
(dp1648
g82
g83
ssg71
g1642
sg64
(lp1649
g796
asbag57
(g78
g59
NtRp1650
(dp1651
g62
(dp1652
g89
g90
ssg71
g1642
sg64
(lp1653
S':'
asbag57
(g78
g59
NtRp1654
(dp1655
g62
(dp1656
sg71
g1642
sg64
(lp1657
g57
(g58
g59
NtRp1658
(dp1659
g62
(dp1660
g70
I4
ssg71
g1654
sg64
(lp1661
g100
asbasbasbag57
(g73
g59
NtRp1662
(dp1663
g62
(dp1664
sg71
g1491
sg64
(lp1665
g57
(g78
g59
NtRp1666
(dp1667
g62
(dp1668
g82
g83
ssg71
g1662
sg64
(lp1669
g817
asbag57
(g78
g59
NtRp1670
(dp1671
g62
(dp1672
g89
g90
ssg71
g1662
sg64
(lp1673
S':'
asbag57
(g78
g59
NtRp1674
(dp1675
g62
(dp1676
sg71
g1662
sg64
(lp1677
g57
(g58
g59
NtRp1678
(dp1679
g62
(dp1680
g70
I4
ssg71
g1674
sg64
(lp1681
g100
asbasbasbag57
(g73
g59
NtRp1682
(dp1683
g62
(dp1684
sg71
g1491
sg64
(lp1685
g57
(g78
g59
NtRp1686
(dp1687
g62
(dp1688
g82
g83
ssg71
g1682
sg64
(lp1689
g1055
asbag57
(g78
g59
NtRp1690
(dp1691
g62
(dp1692
g89
g90
ssg71
g1682
sg64
(lp1693
S':'
asbag57
(g78
g59
NtRp1694
(dp1695
g62
(dp1696
sg71
g1682
sg64
(lp1697
g57
(g58
g59
NtRp1698
(dp1699
g62
(dp1700
g70
I4
ssg71
g1694
sg64
(lp1701
g1068
asbasbasbag57
(g73
g59
NtRp1702
(dp1703
g62
(dp1704
sg71
g1491
sg64
(lp1705
g57
(g78
g59
NtRp1706
(dp1707
g62
(dp1708
g82
g83
ssg71
g1702
sg64
(lp1709
g1098
asbag57
(g78
g59
NtRp1710
(dp1711
g62
(dp1712
g89
g90
ssg71
g1702
sg64
(lp1713
S':'
asbag57
(g78
g59
NtRp1714
(dp1715
g62
(dp1716
sg71
g1702
sg64
(lp1717
g57
(g58
g59
NtRp1718
(dp1719
g62
(dp1720
g70
I4
ssg71
g1714
sg64
(lp1721
g57
(g66
g59
NtRp1722
(dp1723
g62
(dp1724
g70
I3
ssg71
Nsg64
(lp1725
g57
(g73
g59
NtRp1726
(dp1727
g62
(dp1728
sg71
g1722
sg64
(lp1729
g57
(g78
g59
NtRp1730
(dp1731
g62
(dp1732
sg71
g1726
sg64
(lp1733
g57
(g58
g59
NtRp1734
(dp1735
g62
(dp1736
g70
I3
ssg71
g1730
sg64
(lp1737
S'1'
asbasbasbag57
(g73
g59
NtRp1738
(dp1739
g62
(dp1740
sg71
g1722
sg64
(lp1741
g57
(g78
g59
NtRp1742
(dp1743
g62
(dp1744
sg71
g1738
sg64
(lp1745
g57
(g58
g59
NtRp1746
(dp1747
g62
(dp1748
g70
I3
ssg71
g1742
sg64
(lp1749
S'99'
p1750
asbasbasbag57
(g73
g59
NtRp1751
(dp1752
g62
(dp1753
sg71
g1722
sg64
(lp1754
g57
(g78
g59
NtRp1755
(dp1756
g62
(dp1757
sg71
g1751
sg64
(lp1758
g57
(g58
g59
NtRp1759
(dp1760
g62
(dp1761
g70
I3
ssg71
g1755
sg64
(lp1762
S'7'
asbasbasbag57
(g73
g59
NtRp1763
(dp1764
g62
(dp1765
sg71
g1722
sg64
(lp1766
g57
(g78
g59
NtRp1767
(dp1768
g62
(dp1769
sg71
g1763
sg64
(lp1770
g57
(g58
g59
NtRp1771
(dp1772
g62
(dp1773
g70
I3
ssg71
g1767
sg64
(lp1774
S'datetime.datetime(2012, 3, 4, 22, 12, 8)'
p1775
asbasbasbag57
(g73
g59
NtRp1776
(dp1777
g62
(dp1778
sg71
g1722
sg64
(lp1779
g57
(g78
g59
NtRp1780
(dp1781
g62
(dp1782
sg71
g1776
sg64
(lp1783
g57
(g58
g59
NtRp1784
(dp1785
g62
(dp1786
g70
I3
ssg71
g1780
sg64
(lp1787
g1177
asbasbasbasbasbasbasbasbasbasbasbag57
(g73
g59
NtRp1788
(dp1789
g62
(dp1790
sg71
g67
sg64
(lp1791
g57
(g78
g59
NtRp1792
(dp1793
g62
(dp1794
g82
g83
ssg71
g1788
sg64
(lp1795
S'is_https'
p1796
asbag57
(g78
g59
NtRp1797
(dp1798
g62
(dp1799
g89
g90
ssg71
g1788
sg64
(lp1800
S':'
asbag57
(g78
g59
NtRp1801
(dp1802
g62
(dp1803
sg71
g1788
sg64
(lp1804
g57
(g58
g59
NtRp1805
(dp1806
g62
(dp1807
g70
I5
ssg71
g1801
sg64
(lp1808
g100
asbasbasbag57
(g73
g59
NtRp1809
(dp1810
g62
(dp1811
sg71
g67
sg64
(lp1812
g57
(g78
g59
NtRp1813
(dp1814
g62
(dp1815
g82
g83
ssg71
g1809
sg64
(lp1816
S'is_local'
p1817
asbag57
(g78
g59
NtRp1818
(dp1819
g62
(dp1820
g89
g90
ssg71
g1809
sg64
(lp1821
S':'
asbag57
(g78
g59
NtRp1822
(dp1823
g62
(dp1824
sg71
g1809
sg64
(lp1825
g57
(g58
g59
NtRp1826
(dp1827
g62
(dp1828
g70
I5
ssg71
g1822
sg64
(lp1829
g1286
asbasbasbag57
(g73
g59
NtRp1830
(dp1831
g62
(dp1832
sg71
g67
sg64
(lp1833
g57
(g78
g59
NtRp1834
(dp1835
g62
(dp1836
g82
g83
ssg71
g1830
sg64
(lp1837
S'is_restful'
p1838
asbag57
(g78
g59
NtRp1839
(dp1840
g62
(dp1841
g89
g90
ssg71
g1830
sg64
(lp1842
S':'
asbag57
(g78
g59
NtRp1843
(dp1844
g62
(dp1845
sg71
g1830
sg64
(lp1846
g57
(g58
g59
NtRp1847
(dp1848
g62
(dp1849
g70
I5
ssg71
g1843
sg64
(lp1850
g100
asbasbasbag57
(g73
g59
NtRp1851
(dp1852
g62
(dp1853
sg71
g67
sg64
(lp1854
g57
(g78
g59
NtRp1855
(dp1856
g62
(dp1857
g82
g83
ssg71
g1851
sg64
(lp1858
S'now'
p1859
asbag57
(g78
g59
NtRp1860
(dp1861
g62
(dp1862
g89
g90
ssg71
g1851
sg64
(lp1863
S':'
asbag57
(g78
g59
NtRp1864
(dp1865
g62
(dp1866
sg71
g1851
sg64
(lp1867
g57
(g58
g59
NtRp1868
(dp1869
g62
(dp1870
g70
I5
ssg71
g1864
sg64
(lp1871
S'datetime.datetime(2012, 7, 27, 16, 2, 27, 305494)'
p1872
asbasbasbag57
(g73
g59
NtRp1873
(dp1874
g62
(dp1875
sg71
g67
sg64
(lp1876
g57
(g78
g59
NtRp1877
(dp1878
g62
(dp1879
g82
g83
ssg71
g1873
sg64
(lp1880
S'post_vars'
p1881
asbag57
(g78
g59
NtRp1882
(dp1883
g62
(dp1884
g89
g90
ssg71
g1873
sg64
(lp1885
S':'
asbag57
(g78
g59
NtRp1886
(dp1887
g62
(dp1888
sg71
g1873
sg64
(lp1889
g57
(g58
g59
NtRp1890
(dp1891
g62
(dp1892
g70
I5
ssg71
g1886
sg64
(lp1893
g57
(g66
g59
NtRp1894
(dp1895
g62
(dp1896
g70
I4
ssg71
Nsg64
(lp1897
sbasbasbasbag57
(g73
g59
NtRp1898
(dp1899
g62
(dp1900
sg71
g67
sg64
(lp1901
g57
(g78
g59
NtRp1902
(dp1903
g62
(dp1904
g82
g83
ssg71
g1898
sg64
(lp1905
S'url'
p1906
asbag57
(g78
g59
NtRp1907
(dp1908
g62
(dp1909
g89
g90
ssg71
g1898
sg64
(lp1910
S':'
asbag57
(g78
g59
NtRp1911
(dp1912
g62
(dp1913
sg71
g1898
sg64
(lp1914
g57
(g58
g59
NtRp1915
(dp1916
g62
(dp1917
g70
I5
ssg71
g1911
sg64
(lp1918
S'/Inventory/qrinv/enter_inventory'
p1919
asbasbasbag57
(g73
g59
NtRp1920
(dp1921
g62
(dp1922
sg71
g67
sg64
(lp1923
g57
(g78
g59
NtRp1924
(dp1925
g62
(dp1926
g82
g83
ssg71
g1920
sg64
(lp1927
S'utcnow'
p1928
asbag57
(g78
g59
NtRp1929
(dp1930
g62
(dp1931
g89
g90
ssg71
g1920
sg64
(lp1932
S':'
asbag57
(g78
g59
NtRp1933
(dp1934
g62
(dp1935
sg71
g1920
sg64
(lp1936
g57
(g58
g59
NtRp1937
(dp1938
g62
(dp1939
g70
I5
ssg71
g1933
sg64
(lp1940
S'datetime.datetime(2012, 7, 27, 21, 2, 27, 305513)'
p1941
asbasbasbag57
(g73
g59
NtRp1942
(dp1943
g62
(dp1944
sg71
g67
sg64
(lp1945
g57
(g78
g59
NtRp1946
(dp1947
g62
(dp1948
g82
g83
ssg71
g1942
sg64
(lp1949
S'uuid'
p1950
asbag57
(g78
g59
NtRp1951
(dp1952
g62
(dp1953
g89
g90
ssg71
g1942
sg64
(lp1954
S':'
asbag57
(g78
g59
NtRp1955
(dp1956
g62
(dp1957
sg71
g1942
sg64
(lp1958
g57
(g58
g59
NtRp1959
(dp1960
g62
(dp1961
g70
I5
ssg71
g1955
sg64
(lp1962
S'Inventory/127.0.0.1.2012-07-27.16-02-27.4c705b33-2708-4d48-a757-2edb1b2932b7'
p1963
asbasbasbag57
(g73
g59
NtRp1964
(dp1965
g62
(dp1966
sg71
g67
sg64
(lp1967
g57
(g78
g59
NtRp1968
(dp1969
g62
(dp1970
g82
g83
ssg71
g1964
sg64
(lp1971
S'vars'
p1972
asbag57
(g78
g59
NtRp1973
(dp1974
g62
(dp1975
g89
g90
ssg71
g1964
sg64
(lp1976
S':'
asbag57
(g78
g59
NtRp1977
(dp1978
g62
(dp1979
sg71
g1964
sg64
(lp1980
g57
(g58
g59
NtRp1981
(dp1982
g62
(dp1983
g70
I5
ssg71
g1977
sg64
(lp1984
g57
(g66
g59
NtRp1985
(dp1986
g62
(dp1987
g70
I4
ssg71
Nsg64
(lp1988
sbasbasbasbag57
(g73
g59
NtRp1989
(dp1990
g62
(dp1991
sg71
g67
sg64
(lp1992
g57
(g78
g59
NtRp1993
(dp1994
g62
(dp1995
g82
g83
ssg71
g1989
sg64
(lp1996
S'wsgi'
p1997
asbag57
(g78
g59
NtRp1998
(dp1999
g62
(dp2000
g89
g90
ssg71
g1989
sg64
(lp2001
S':'
asbag57
(g78
g59
NtRp2002
(dp2003
g62
(dp2004
sg71
g1989
sg64
(lp2005
g57
(g58
g59
NtRp2006
(dp2007
g62
(dp2008
g70
I5
ssg71
g2002
sg64
(lp2009
g57
(g66
g59
NtRp2010
(dp2011
g62
(dp2012
g70
I4
ssg71
Nsg64
(lp2013
g57
(g73
g59
NtRp2014
(dp2015
g62
(dp2016
sg71
g2010
sg64
(lp2017
g57
(g78
g59
NtRp2018
(dp2019
g62
(dp2020
g82
g83
ssg71
g2014
sg64
(lp2021
S'environ'
p2022
asbag57
(g78
g59
NtRp2023
(dp2024
g62
(dp2025
g89
g90
ssg71
g2014
sg64
(lp2026
S':'
asbag57
(g78
g59
NtRp2027
(dp2028
g62
(dp2029
sg71
g2014
sg64
(lp2030
g57
(g58
g59
NtRp2031
(dp2032
g62
(dp2033
g70
I4
ssg71
g2027
sg64
(lp2034
g57
(g66
g59
NtRp2035
(dp2036
g62
(dp2037
g70
I3
ssg71
Nsg64
(lp2038
g57
(g73
g59
NtRp2039
(dp2040
g62
(dp2041
sg71
g2035
sg64
(lp2042
g57
(g78
g59
NtRp2043
(dp2044
g62
(dp2045
g82
g83
ssg71
g2039
sg64
(lp2046
S'HTTP_ACCEPT'
p2047
asbag57
(g78
g59
NtRp2048
(dp2049
g62
(dp2050
g89
g90
ssg71
g2039
sg64
(lp2051
S':'
asbag57
(g78
g59
NtRp2052
(dp2053
g62
(dp2054
sg71
g2039
sg64
(lp2055
g57
(g58
g59
NtRp2056
(dp2057
g62
(dp2058
g70
I3
ssg71
g2052
sg64
(lp2059
g633
asbasbasbag57
(g73
g59
NtRp2060
(dp2061
g62
(dp2062
sg71
g2035
sg64
(lp2063
g57
(g78
g59
NtRp2064
(dp2065
g62
(dp2066
g82
g83
ssg71
g2060
sg64
(lp2067
S'HTTP_ACCEPT_ENCODING'
p2068
asbag57
(g78
g59
NtRp2069
(dp2070
g62
(dp2071
g89
g90
ssg71
g2060
sg64
(lp2072
S':'
asbag57
(g78
g59
NtRp2073
(dp2074
g62
(dp2075
sg71
g2060
sg64
(lp2076
g57
(g58
g59
NtRp2077
(dp2078
g62
(dp2079
g70
I3
ssg71
g2073
sg64
(lp2080
g655
asbasbasbag57
(g73
g59
NtRp2081
(dp2082
g62
(dp2083
sg71
g2035
sg64
(lp2084
g57
(g78
g59
NtRp2085
(dp2086
g62
(dp2087
g82
g83
ssg71
g2081
sg64
(lp2088
S'HTTP_ACCEPT_LANGUAGE'
p2089
asbag57
(g78
g59
NtRp2090
(dp2091
g62
(dp2092
g89
g90
ssg71
g2081
sg64
(lp2093
S':'
asbag57
(g78
g59
NtRp2094
(dp2095
g62
(dp2096
sg71
g2081
sg64
(lp2097
g57
(g58
g59
NtRp2098
(dp2099
g62
(dp2100
g70
I3
ssg71
g2094
sg64
(lp2101
g677
asbasbasbag57
(g73
g59
NtRp2102
(dp2103
g62
(dp2104
sg71
g2035
sg64
(lp2105
g57
(g78
g59
NtRp2106
(dp2107
g62
(dp2108
g82
g83
ssg71
g2102
sg64
(lp2109
S'HTTP_CONNECTION'
p2110
asbag57
(g78
g59
NtRp2111
(dp2112
g62
(dp2113
g89
g90
ssg71
g2102
sg64
(lp2114
S':'
asbag57
(g78
g59
NtRp2115
(dp2116
g62
(dp2117
sg71
g2102
sg64
(lp2118
g57
(g58
g59
NtRp2119
(dp2120
g62
(dp2121
g70
I3
ssg71
g2115
sg64
(lp2122
g699
asbasbasbag57
(g73
g59
NtRp2123
(dp2124
g62
(dp2125
sg71
g2035
sg64
(lp2126
g57
(g78
g59
NtRp2127
(dp2128
g62
(dp2129
g82
g83
ssg71
g2123
sg64
(lp2130
S'HTTP_COOKIE'
p2131
asbag57
(g78
g59
NtRp2132
(dp2133
g62
(dp2134
g89
g90
ssg71
g2123
sg64
(lp2135
S':'
asbag57
(g78
g59
NtRp2136
(dp2137
g62
(dp2138
sg71
g2123
sg64
(lp2139
g57
(g58
g59
NtRp2140
(dp2141
g62
(dp2142
g70
I3
ssg71
g2136
sg64
(lp2143
g721
asbasbasbag57
(g73
g59
NtRp2144
(dp2145
g62
(dp2146
sg71
g2035
sg64
(lp2147
g57
(g78
g59
NtRp2148
(dp2149
g62
(dp2150
g82
g83
ssg71
g2144
sg64
(lp2151
S'HTTP_HOST'
p2152
asbag57
(g78
g59
NtRp2153
(dp2154
g62
(dp2155
g89
g90
ssg71
g2144
sg64
(lp2156
S':'
asbag57
(g78
g59
NtRp2157
(dp2158
g62
(dp2159
sg71
g2144
sg64
(lp2160
g57
(g58
g59
NtRp2161
(dp2162
g62
(dp2163
g70
I3
ssg71
g2157
sg64
(lp2164
g743
asbasbasbag57
(g73
g59
NtRp2165
(dp2166
g62
(dp2167
sg71
g2035
sg64
(lp2168
g57
(g78
g59
NtRp2169
(dp2170
g62
(dp2171
g82
g83
ssg71
g2165
sg64
(lp2172
S'HTTP_REFERER'
p2173
asbag57
(g78
g59
NtRp2174
(dp2175
g62
(dp2176
g89
g90
ssg71
g2165
sg64
(lp2177
S':'
asbag57
(g78
g59
NtRp2178
(dp2179
g62
(dp2180
sg71
g2165
sg64
(lp2181
g57
(g58
g59
NtRp2182
(dp2183
g62
(dp2184
g70
I3
ssg71
g2178
sg64
(lp2185
g765
asbasbasbag57
(g73
g59
NtRp2186
(dp2187
g62
(dp2188
sg71
g2035
sg64
(lp2189
g57
(g78
g59
NtRp2190
(dp2191
g62
(dp2192
g82
g83
ssg71
g2186
sg64
(lp2193
S'HTTP_USER_AGENT'
p2194
asbag57
(g78
g59
NtRp2195
(dp2196
g62
(dp2197
g89
g90
ssg71
g2186
sg64
(lp2198
S':'
asbag57
(g78
g59
NtRp2199
(dp2200
g62
(dp2201
sg71
g2186
sg64
(lp2202
g57
(g58
g59
NtRp2203
(dp2204
g62
(dp2205
g70
I3
ssg71
g2199
sg64
(lp2206
g787
asbasbasbag57
(g73
g59
NtRp2207
(dp2208
g62
(dp2209
sg71
g2035
sg64
(lp2210
g57
(g78
g59
NtRp2211
(dp2212
g62
(dp2213
g82
g83
ssg71
g2207
sg64
(lp2214
S'PATH_INFO'
p2215
asbag57
(g78
g59
NtRp2216
(dp2217
g62
(dp2218
g89
g90
ssg71
g2207
sg64
(lp2219
S':'
asbag57
(g78
g59
NtRp2220
(dp2221
g62
(dp2222
sg71
g2207
sg64
(lp2223
g57
(g58
g59
NtRp2224
(dp2225
g62
(dp2226
g70
I3
ssg71
g2220
sg64
(lp2227
g851
asbasbasbag57
(g73
g59
NtRp2228
(dp2229
g62
(dp2230
sg71
g2035
sg64
(lp2231
g57
(g78
g59
NtRp2232
(dp2233
g62
(dp2234
g82
g83
ssg71
g2228
sg64
(lp2235
S'QUERY_STRING'
p2236
asbag57
(g78
g59
NtRp2237
(dp2238
g62
(dp2239
g89
g90
ssg71
g2228
sg64
(lp2240
S':'
asbag57
(g78
g59
NtRp2241
(dp2242
g62
(dp2243
sg71
g2228
sg64
(lp2244
g57
(g58
g59
NtRp2245
(dp2246
g62
(dp2247
g70
I3
ssg71
g2241
sg64
(lp2248
S''
asbasbasbag57
(g73
g59
NtRp2249
(dp2250
g62
(dp2251
sg71
g2035
sg64
(lp2252
g57
(g78
g59
NtRp2253
(dp2254
g62
(dp2255
g82
g83
ssg71
g2249
sg64
(lp2256
S'REMOTE_ADDR'
p2257
asbag57
(g78
g59
NtRp2258
(dp2259
g62
(dp2260
g89
g90
ssg71
g2249
sg64
(lp2261
S':'
asbag57
(g78
g59
NtRp2262
(dp2263
g62
(dp2264
sg71
g2249
sg64
(lp2265
g57
(g58
g59
NtRp2266
(dp2267
g62
(dp2268
g70
I3
ssg71
g2262
sg64
(lp2269
g190
asbasbasbag57
(g73
g59
NtRp2270
(dp2271
g62
(dp2272
sg71
g2035
sg64
(lp2273
g57
(g78
g59
NtRp2274
(dp2275
g62
(dp2276
g82
g83
ssg71
g2270
sg64
(lp2277
S'REMOTE_PORT'
p2278
asbag57
(g78
g59
NtRp2279
(dp2280
g62
(dp2281
g89
g90
ssg71
g2270
sg64
(lp2282
S':'
asbag57
(g78
g59
NtRp2283
(dp2284
g62
(dp2285
sg71
g2270
sg64
(lp2286
g57
(g58
g59
NtRp2287
(dp2288
g62
(dp2289
g70
I3
ssg71
g2283
sg64
(lp2290
g915
asbasbasbag57
(g73
g59
NtRp2291
(dp2292
g62
(dp2293
sg71
g2035
sg64
(lp2294
g57
(g78
g59
NtRp2295
(dp2296
g62
(dp2297
g82
g83
ssg71
g2291
sg64
(lp2298
S'REQUEST_METHOD'
p2299
asbag57
(g78
g59
NtRp2300
(dp2301
g62
(dp2302
g89
g90
ssg71
g2291
sg64
(lp2303
S':'
asbag57
(g78
g59
NtRp2304
(dp2305
g62
(dp2306
sg71
g2291
sg64
(lp2307
g57
(g58
g59
NtRp2308
(dp2309
g62
(dp2310
g70
I3
ssg71
g2304
sg64
(lp2311
g937
asbasbasbag57
(g73
g59
NtRp2312
(dp2313
g62
(dp2314
sg71
g2035
sg64
(lp2315
g57
(g78
g59
NtRp2316
(dp2317
g62
(dp2318
g82
g83
ssg71
g2312
sg64
(lp2319
S'SCRIPT_NAME'
p2320
asbag57
(g78
g59
NtRp2321
(dp2322
g62
(dp2323
g89
g90
ssg71
g2312
sg64
(lp2324
S':'
asbag57
(g78
g59
NtRp2325
(dp2326
g62
(dp2327
sg71
g2312
sg64
(lp2328
g57
(g58
g59
NtRp2329
(dp2330
g62
(dp2331
g70
I3
ssg71
g2325
sg64
(lp2332
S''
asbasbasbag57
(g73
g59
NtRp2333
(dp2334
g62
(dp2335
sg71
g2035
sg64
(lp2336
g57
(g78
g59
NtRp2337
(dp2338
g62
(dp2339
g82
g83
ssg71
g2333
sg64
(lp2340
S'SERVER_NAME'
p2341
asbag57
(g78
g59
NtRp2342
(dp2343
g62
(dp2344
g89
g90
ssg71
g2333
sg64
(lp2345
S':'
asbag57
(g78
g59
NtRp2346
(dp2347
g62
(dp2348
sg71
g2333
sg64
(lp2349
g57
(g58
g59
NtRp2350
(dp2351
g62
(dp2352
g70
I3
ssg71
g2346
sg64
(lp2353
g980
asbasbasbag57
(g73
g59
NtRp2354
(dp2355
g62
(dp2356
sg71
g2035
sg64
(lp2357
g57
(g78
g59
NtRp2358
(dp2359
g62
(dp2360
g82
g83
ssg71
g2354
sg64
(lp2361
S'SERVER_PORT'
p2362
asbag57
(g78
g59
NtRp2363
(dp2364
g62
(dp2365
g89
g90
ssg71
g2354
sg64
(lp2366
S':'
asbag57
(g78
g59
NtRp2367
(dp2368
g62
(dp2369
sg71
g2354
sg64
(lp2370
g57
(g58
g59
NtRp2371
(dp2372
g62
(dp2373
g70
I3
ssg71
g2367
sg64
(lp2374
g1002
asbasbasbag57
(g73
g59
NtRp2375
(dp2376
g62
(dp2377
sg71
g2035
sg64
(lp2378
g57
(g78
g59
NtRp2379
(dp2380
g62
(dp2381
g82
g83
ssg71
g2375
sg64
(lp2382
S'SERVER_PROTOCOL'
p2383
asbag57
(g78
g59
NtRp2384
(dp2385
g62
(dp2386
g89
g90
ssg71
g2375
sg64
(lp2387
S':'
asbag57
(g78
g59
NtRp2388
(dp2389
g62
(dp2390
sg71
g2375
sg64
(lp2391
g57
(g58
g59
NtRp2392
(dp2393
g62
(dp2394
g70
I3
ssg71
g2388
sg64
(lp2395
g1024
asbasbasbag57
(g73
g59
NtRp2396
(dp2397
g62
(dp2398
sg71
g2035
sg64
(lp2399
g57
(g78
g59
NtRp2400
(dp2401
g62
(dp2402
g82
g83
ssg71
g2396
sg64
(lp2403
S'SERVER_SOFTWARE'
p2404
asbag57
(g78
g59
NtRp2405
(dp2406
g62
(dp2407
g89
g90
ssg71
g2396
sg64
(lp2408
S':'
asbag57
(g78
g59
NtRp2409
(dp2410
g62
(dp2411
sg71
g2396
sg64
(lp2412
g57
(g58
g59
NtRp2413
(dp2414
g62
(dp2415
g70
I3
ssg71
g2409
sg64
(lp2416
g1046
asbasbasbag57
(g73
g59
NtRp2417
(dp2418
g62
(dp2419
sg71
g2035
sg64
(lp2420
g57
(g78
g59
NtRp2421
(dp2422
g62
(dp2423
g82
g83
ssg71
g2417
sg64
(lp2424
S'wsgi.errors'
p2425
asbag57
(g78
g59
NtRp2426
(dp2427
g62
(dp2428
g89
g90
ssg71
g2417
sg64
(lp2429
S':'
asbag57
(g78
g59
NtRp2430
(dp2431
g62
(dp2432
sg71
g2417
sg64
(lp2433
g57
(g58
g59
NtRp2434
(dp2435
g62
(dp2436
g70
I3
ssg71
g2430
sg64
(lp2437
S"<open file '<stderr>', mode 'w' at 0xb78a60d0>"
p2438
asbasbasbag57
(g73
g59
NtRp2439
(dp2440
g62
(dp2441
sg71
g2035
sg64
(lp2442
g57
(g78
g59
NtRp2443
(dp2444
g62
(dp2445
g82
g83
ssg71
g2439
sg64
(lp2446
S'wsgi.file_wrapper'
p2447
asbag57
(g78
g59
NtRp2448
(dp2449
g62
(dp2450
g89
g90
ssg71
g2439
sg64
(lp2451
S':'
asbag57
(g78
g59
NtRp2452
(dp2453
g62
(dp2454
sg71
g2439
sg64
(lp2455
g57
(g58
g59
NtRp2456
(dp2457
g62
(dp2458
g70
I3
ssg71
g2452
sg64
(lp2459
S'<class wsgiref.util.FileWrapper at 0x932fc8c>'
p2460
asbasbasbag57
(g73
g59
NtRp2461
(dp2462
g62
(dp2463
sg71
g2035
sg64
(lp2464
g57
(g78
g59
NtRp2465
(dp2466
g62
(dp2467
g82
g83
ssg71
g2461
sg64
(lp2468
S'wsgi.input'
p2469
asbag57
(g78
g59
NtRp2470
(dp2471
g62
(dp2472
g89
g90
ssg71
g2461
sg64
(lp2473
S':'
asbag57
(g78
g59
NtRp2474
(dp2475
g62
(dp2476
sg71
g2461
sg64
(lp2477
g57
(g58
g59
NtRp2478
(dp2479
g62
(dp2480
g70
I3
ssg71
g2474
sg64
(lp2481
S'<cStringIO.StringO object at 0x9d47100>'
p2482
asbasbasbag57
(g73
g59
NtRp2483
(dp2484
g62
(dp2485
sg71
g2035
sg64
(lp2486
g57
(g78
g59
NtRp2487
(dp2488
g62
(dp2489
g82
g83
ssg71
g2483
sg64
(lp2490
S'wsgi.multiprocess'
p2491
asbag57
(g78
g59
NtRp2492
(dp2493
g62
(dp2494
g89
g90
ssg71
g2483
sg64
(lp2495
S':'
asbag57
(g78
g59
NtRp2496
(dp2497
g62
(dp2498
sg71
g2483
sg64
(lp2499
g57
(g58
g59
NtRp2500
(dp2501
g62
(dp2502
g70
I3
ssg71
g2496
sg64
(lp2503
g100
asbasbasbag57
(g73
g59
NtRp2504
(dp2505
g62
(dp2506
sg71
g2035
sg64
(lp2507
g57
(g78
g59
NtRp2508
(dp2509
g62
(dp2510
g82
g83
ssg71
g2504
sg64
(lp2511
S'wsgi.multithread'
p2512
asbag57
(g78
g59
NtRp2513
(dp2514
g62
(dp2515
g89
g90
ssg71
g2504
sg64
(lp2516
S':'
asbag57
(g78
g59
NtRp2517
(dp2518
g62
(dp2519
sg71
g2504
sg64
(lp2520
g57
(g58
g59
NtRp2521
(dp2522
g62
(dp2523
g70
I3
ssg71
g2517
sg64
(lp2524
g1286
asbasbasbag57
(g73
g59
NtRp2525
(dp2526
g62
(dp2527
sg71
g2035
sg64
(lp2528
g57
(g78
g59
NtRp2529
(dp2530
g62
(dp2531
g82
g83
ssg71
g2525
sg64
(lp2532
S'wsgi.run_once'
p2533
asbag57
(g78
g59
NtRp2534
(dp2535
g62
(dp2536
g89
g90
ssg71
g2525
sg64
(lp2537
S':'
asbag57
(g78
g59
NtRp2538
(dp2539
g62
(dp2540
sg71
g2525
sg64
(lp2541
g57
(g58
g59
NtRp2542
(dp2543
g62
(dp2544
g70
I3
ssg71
g2538
sg64
(lp2545
g100
asbasbasbag57
(g73
g59
NtRp2546
(dp2547
g62
(dp2548
sg71
g2035
sg64
(lp2549
g57
(g78
g59
NtRp2550
(dp2551
g62
(dp2552
g82
g83
ssg71
g2546
sg64
(lp2553
S'wsgi.url_scheme'
p2554
asbag57
(g78
g59
NtRp2555
(dp2556
g62
(dp2557
g89
g90
ssg71
g2546
sg64
(lp2558
S':'
asbag57
(g78
g59
NtRp2559
(dp2560
g62
(dp2561
sg71
g2546
sg64
(lp2562
g57
(g58
g59
NtRp2563
(dp2564
g62
(dp2565
g70
I3
ssg71
g2559
sg64
(lp2566
g1329
asbasbasbag57
(g73
g59
NtRp2567
(dp2568
g62
(dp2569
sg71
g2035
sg64
(lp2570
g57
(g78
g59
NtRp2571
(dp2572
g62
(dp2573
g82
g83
ssg71
g2567
sg64
(lp2574
S'wsgi.version'
p2575
asbag57
(g78
g59
NtRp2576
(dp2577
g62
(dp2578
g89
g90
ssg71
g2567
sg64
(lp2579
S':'
asbag57
(g78
g59
NtRp2580
(dp2581
g62
(dp2582
sg71
g2567
sg64
(lp2583
g57
(g58
g59
NtRp2584
(dp2585
g62
(dp2586
g70
I3
ssg71
g2580
sg64
(lp2587
S'1'
asbasbasbasbasbasbasbasbasbasbasbasbasbsS'frames'
p2588
(lp2589
(dp2590
S'file'
p2591
S'/home/jpr/Source/web2py/gluon/restricted.py'
p2592
sS'dump'
p2593
(dp2594
S'environment'
p2595
S"{'A': <class 'gluon.html.A'>, 'Auth': <class 'gluon.tools.Auth'>, 'B': <class 'gluon.html.B'>, 'BEAUTIFY': <class 'gluon.html.BEAUTIFY'>, 'BODY': <class 'gluon.html.BODY'>, 'BR': <class 'gluon.html.BR'>, 'BUTTON': <class 'gluon.html.BUTTON'>, 'CAT': <class 'gluon.html.CAT'>, 'CENTER': <class 'gluon.html.CENTER'>, 'CLEANUP': <class 'gluon.validators.CLEANUP'>, ...}"
p2596
sS'ccode'
p2597
S'<code object <module> at 0x96efb18, file "/home/...ications/Inventory/controllers/qrinv.py", line 5>'
p2598
ssS'lnum'
p2599
I205
sS'lines'
p2600
(dp2601
I200
S'    try:'
p2602
sI201
S'        if type(code) == types.CodeType:'
p2603
sI202
S'            ccode = code'
p2604
sI203
S'        else:'
p2605
sI204
S'            ccode = compile2(code,layer)'
p2606
sI205
S'        exec ccode in environment'
p2607
sI206
S'    except HTTP:'
p2608
sI207
S'        raise'
p2609
sI208
S'    except RestrictedError:'
p2610
sI209
S'        # do not encapsulate (obfuscate) the original RestrictedError'
p2611
ssS'call'
p2612
S"(code='# QR inventory system\\n# 06/01/2012\\n# Joel Robins...response._vars=response._caller(enter_inventory)\\n', environment={'A': <class 'gluon.html.A'>, 'Auth': <class 'gluon.tools.Auth'>, 'B': <class 'gluon.html.B'>, 'BEAUTIFY': <class 'gluon.html.BEAUTIFY'>, 'BODY': <class 'gluon.html.BODY'>, 'BR': <class 'gluon.html.BR'>, 'BUTTON': <class 'gluon.html.BUTTON'>, 'CAT': <class 'gluon.html.CAT'>, 'CENTER': <class 'gluon.html.CENTER'>, 'CLEANUP': <class 'gluon.validators.CLEANUP'>, ...}, layer='/home/jpr/Source/web2py/applications/Inventory/controllers/qrinv.py')"
p2613
sS'func'
p2614
S'restricted'
p2615
sa(dp2616
g2591
S'/home/jpr/Source/web2py/applications/Inventory/controllers/qrinv.py'
p2617
sg2593
(dp2618
S'elaphe'
p2619
S'undefined'
p2620
sS'barcode'
p2621
g2620
ssg2599
I5
sg2600
(dp2622
I2
S'# 06/01/2012'
p2623
sI3
S'# Joel Robinson'
p2624
sI4
S''
sI5
S'from elaphe import barcode'
p2625
sI6
S'from gluon.contenttype import contenttype'
p2626
sI7
S'if 0:'
p2627
sI8
S'    from gluon.globals import *'
p2628
sI9
S'    from gluon.html import *'
p2629
sI10
S'    from gluon.http import *'
p2630
sI11
S'    from gluon.sqlhtml import SQLFORM, SQLTABLE, form_factory'
p2631
ssg2612
S'()'
p2632
sg2614
S'<module>'
p2633
sa(dp2634
g2591
S'/home/jpr/Source/web2py/gluon/custom_import.py'
p2635
sg2593
(dp2636
S'fromlist'
p2637
S"('barcode',)"
p2638
sS'level'
p2639
S'-1'
p2640
ssg2599
I293
sg2600
(dp2641
I288
S'                            .__call__(modules_prefix+"."+name,'
p2642
sI289
S'                                    globals, locals, fromlist, level)'
p2643
sI290
S'                except ImportError:'
p2644
sI291
S'                    pass'
p2645
sI292
S'        return super(_Web2pyImporter, self).__call__(name, globals, locals,'
p2646
sI293
S'                                                    fromlist, level)'
p2647
sI294
S'        #except Exception, e:'
p2648
sI295
S"        #    raise e  # Don't hide something that went wrong"
p2649
sI296
S'        #finally:'
p2650
sI297
S'        self.end()'
p2651
ssg2612
S"(self=<gluon.custom_import._Web2pyImporter object>, name='elaphe', globals={'A': <class 'gluon.html.A'>, 'Auth': <class 'gluon.tools.Auth'>, 'B': <class 'gluon.html.B'>, 'BEAUTIFY': <class 'gluon.html.BEAUTIFY'>, 'BODY': <class 'gluon.html.BODY'>, 'BR': <class 'gluon.html.BR'>, 'BUTTON': <class 'gluon.html.BUTTON'>, 'CAT': <class 'gluon.html.CAT'>, 'CENTER': <class 'gluon.html.CENTER'>, 'CLEANUP': <class 'gluon.validators.CLEANUP'>, ...}, locals={'A': <class 'gluon.html.A'>, 'Auth': <class 'gluon.tools.Auth'>, 'B': <class 'gluon.html.B'>, 'BEAUTIFY': <class 'gluon.html.BEAUTIFY'>, 'BODY': <class 'gluon.html.BODY'>, 'BR': <class 'gluon.html.BR'>, 'BUTTON': <class 'gluon.html.BUTTON'>, 'CAT': <class 'gluon.html.CAT'>, 'CENTER': <class 'gluon.html.CENTER'>, 'CLEANUP': <class 'gluon.validators.CLEANUP'>, ...}, fromlist=('barcode',), level=-1)"
p2652
sg2614
S'__call__'
p2653
sa(dp2654
g2591
S'/home/jpr/Source/web2py/gluon/custom_import.py'
p2655
sg2593
(dp2656
S'level'
p2657
S'-1'
p2658
ssg2599
I78
sg2600
(dp2659
I73
S'        """'
p2660
sI74
S'        return _STANDARD_PYTHON_IMPORTER(name,'
p2661
sI75
S'                                         globals,'
p2662
sI76
S'                                         locals,'
p2663
sI77
S'                                         fromlist,'
p2664
sI78
S'                                         level)'
p2665
sI79
S''
sI80
S'    def end(self):'
p2666
sI81
S'        """'
p2667
sI82
S'        Needed for clean up.'
p2668
ssg2612
S"(self=<gluon.custom_import._Web2pyImporter object>, name='elaphe', globals={'A': <class 'gluon.html.A'>, 'Auth': <class 'gluon.tools.Auth'>, 'B': <class 'gluon.html.B'>, 'BEAUTIFY': <class 'gluon.html.BEAUTIFY'>, 'BODY': <class 'gluon.html.BODY'>, 'BR': <class 'gluon.html.BR'>, 'BUTTON': <class 'gluon.html.BUTTON'>, 'CAT': <class 'gluon.html.CAT'>, 'CENTER': <class 'gluon.html.CENTER'>, 'CLEANUP': <class 'gluon.validators.CLEANUP'>, ...}, locals={'A': <class 'gluon.html.A'>, 'Auth': <class 'gluon.tools.Auth'>, 'B': <class 'gluon.html.B'>, 'BEAUTIFY': <class 'gluon.html.BEAUTIFY'>, 'BODY': <class 'gluon.html.BODY'>, 'BR': <class 'gluon.html.BR'>, 'BUTTON': <class 'gluon.html.BUTTON'>, 'CAT': <class 'gluon.html.CAT'>, 'CENTER': <class 'gluon.html.CENTER'>, 'CLEANUP': <class 'gluon.validators.CLEANUP'>, ...}, fromlist=('barcode',), level=-1)"
p2669
sg2614
g2653
sasS'pyver'
p2670
S'Python 2.6.5: /usr/bin/python2'
p2671
sS'session'
p2672
g57
(g58
g59
NtRp2673
(dp2674
g62
(dp2675
sg64
(lp2676
g57
(g66
g59
NtRp2677
(dp2678
g62
(dp2679
g70
I5
ssg71
Nsg64
(lp2680
sbasbsS'etype'
p2681
S"<type 'exceptions.ImportError'>"
p2682
sS'date'
p2683
S'Fri Jul 27 16:02:27 2012'
p2684
sS'response'
p2685
g57
(g58
g59
NtRp2686
(dp2687
g62
(dp2688
sg64
(lp2689
g57
(g66
g59
NtRp2690
(dp2691
g62
(dp2692
g70
I5
ssg71
Nsg64
(lp2693
g57
(g73
g59
NtRp2694
(dp2695
g62
(dp2696
sg71
g2690
sg64
(lp2697
g57
(g78
g59
NtRp2698
(dp2699
g62
(dp2700
g82
g83
ssg71
g2694
sg64
(lp2701
g155
asbag57
(g78
g59
NtRp2702
(dp2703
g62
(dp2704
g89
g90
ssg71
g2694
sg64
(lp2705
S':'
asbag57
(g78
g59
NtRp2706
(dp2707
g62
(dp2708
sg71
g2694
sg64
(lp2709
g57
(g58
g59
NtRp2710
(dp2711
g62
(dp2712
g70
I5
ssg71
g2706
sg64
(lp2713
S'<cStringIO.StringO object at 0x9767060>'
p2714
asbasbasbag57
(g73
g59
NtRp2715
(dp2716
g62
(dp2717
sg71
g2690
sg64
(lp2718
g57
(g78
g59
NtRp2719
(dp2720
g62
(dp2721
g82
g83
ssg71
g2715
sg64
(lp2722
g221
asbag57
(g78
g59
NtRp2723
(dp2724
g62
(dp2725
g89
g90
ssg71
g2715
sg64
(lp2726
S':'
asbag57
(g78
g59
NtRp2727
(dp2728
g62
(dp2729
sg71
g2715
sg64
(lp2730
g57
(g58
g59
NtRp2731
(dp2732
g62
(dp2733
g70
I5
ssg71
g2727
sg64
(lp2734
g57
(g66
g59
NtRp2735
(dp2736
g62
(dp2737
g70
I4
ssg71
Nsg64
(lp2738
g57
(g73
g59
NtRp2739
(dp2740
g62
(dp2741
sg71
g2735
sg64
(lp2742
g57
(g78
g59
NtRp2743
(dp2744
g62
(dp2745
g82
g83
ssg71
g2739
sg64
(lp2746
S'session_id_inventory'
p2747
asbag57
(g78
g59
NtRp2748
(dp2749
g62
(dp2750
g89
g90
ssg71
g2739
sg64
(lp2751
S':'
asbag57
(g78
g59
NtRp2752
(dp2753
g62
(dp2754
sg71
g2739
sg64
(lp2755
g57
(g58
g59
NtRp2756
(dp2757
g62
(dp2758
g70
I4
ssg71
g2752
sg64
(lp2759
g57
(g66
g59
NtRp2760
(dp2761
g62
(dp2762
g70
I3
ssg71
Nsg64
(lp2763
g57
(g73
g59
NtRp2764
(dp2765
g62
(dp2766
sg71
g2760
sg64
(lp2767
g57
(g78
g59
NtRp2768
(dp2769
g62
(dp2770
g82
g83
ssg71
g2764
sg64
(lp2771
g271
asbag57
(g78
g59
NtRp2772
(dp2773
g62
(dp2774
g89
g90
ssg71
g2764
sg64
(lp2775
S':'
asbag57
(g78
g59
NtRp2776
(dp2777
g62
(dp2778
sg71
g2764
sg64
(lp2779
g57
(g58
g59
NtRp2780
(dp2781
g62
(dp2782
g70
I3
ssg71
g2776
sg64
(lp2783
S''
asbasbasbag57
(g73
g59
NtRp2784
(dp2785
g62
(dp2786
sg71
g2760
sg64
(lp2787
g57
(g78
g59
NtRp2788
(dp2789
g62
(dp2790
g82
g83
ssg71
g2784
sg64
(lp2791
g292
asbag57
(g78
g59
NtRp2792
(dp2793
g62
(dp2794
g89
g90
ssg71
g2784
sg64
(lp2795
S':'
asbag57
(g78
g59
NtRp2796
(dp2797
g62
(dp2798
sg71
g2784
sg64
(lp2799
g57
(g58
g59
NtRp2800
(dp2801
g62
(dp2802
g70
I3
ssg71
g2796
sg64
(lp2803
S''
asbasbasbag57
(g73
g59
NtRp2804
(dp2805
g62
(dp2806
sg71
g2760
sg64
(lp2807
g57
(g78
g59
NtRp2808
(dp2809
g62
(dp2810
g82
g83
ssg71
g2804
sg64
(lp2811
g313
asbag57
(g78
g59
NtRp2812
(dp2813
g62
(dp2814
g89
g90
ssg71
g2804
sg64
(lp2815
S':'
asbag57
(g78
g59
NtRp2816
(dp2817
g62
(dp2818
sg71
g2804
sg64
(lp2819
g57
(g58
g59
NtRp2820
(dp2821
g62
(dp2822
g70
I3
ssg71
g2816
sg64
(lp2823
S''
asbasbasbag57
(g73
g59
NtRp2824
(dp2825
g62
(dp2826
sg71
g2760
sg64
(lp2827
g57
(g78
g59
NtRp2828
(dp2829
g62
(dp2830
g82
g83
ssg71
g2824
sg64
(lp2831
g334
asbag57
(g78
g59
NtRp2832
(dp2833
g62
(dp2834
g89
g90
ssg71
g2824
sg64
(lp2835
S':'
asbag57
(g78
g59
NtRp2836
(dp2837
g62
(dp2838
sg71
g2824
sg64
(lp2839
g57
(g58
g59
NtRp2840
(dp2841
g62
(dp2842
g70
I3
ssg71
g2836
sg64
(lp2843
S''
asbasbasbag57
(g73
g59
NtRp2844
(dp2845
g62
(dp2846
sg71
g2760
sg64
(lp2847
g57
(g78
g59
NtRp2848
(dp2849
g62
(dp2850
g82
g83
ssg71
g2844
sg64
(lp2851
g355
asbag57
(g78
g59
NtRp2852
(dp2853
g62
(dp2854
g89
g90
ssg71
g2844
sg64
(lp2855
S':'
asbag57
(g78
g59
NtRp2856
(dp2857
g62
(dp2858
sg71
g2844
sg64
(lp2859
g57
(g58
g59
NtRp2860
(dp2861
g62
(dp2862
g70
I3
ssg71
g2856
sg64
(lp2863
S''
asbasbasbag57
(g73
g59
NtRp2864
(dp2865
g62
(dp2866
sg71
g2760
sg64
(lp2867
g57
(g78
g59
NtRp2868
(dp2869
g62
(dp2870
g82
g83
ssg71
g2864
sg64
(lp2871
g376
asbag57
(g78
g59
NtRp2872
(dp2873
g62
(dp2874
g89
g90
ssg71
g2864
sg64
(lp2875
S':'
asbag57
(g78
g59
NtRp2876
(dp2877
g62
(dp2878
sg71
g2864
sg64
(lp2879
g57
(g58
g59
NtRp2880
(dp2881
g62
(dp2882
g70
I3
ssg71
g2876
sg64
(lp2883
S'/'
asbasbasbag57
(g73
g59
NtRp2884
(dp2885
g62
(dp2886
sg71
g2760
sg64
(lp2887
g57
(g78
g59
NtRp2888
(dp2889
g62
(dp2890
g82
g83
ssg71
g2884
sg64
(lp2891
g397
asbag57
(g78
g59
NtRp2892
(dp2893
g62
(dp2894
g89
g90
ssg71
g2884
sg64
(lp2895
S':'
asbag57
(g78
g59
NtRp2896
(dp2897
g62
(dp2898
sg71
g2884
sg64
(lp2899
g57
(g58
g59
NtRp2900
(dp2901
g62
(dp2902
g70
I3
ssg71
g2896
sg64
(lp2903
S''
asbasbasbag57
(g73
g59
NtRp2904
(dp2905
g62
(dp2906
sg71
g2760
sg64
(lp2907
g57
(g78
g59
NtRp2908
(dp2909
g62
(dp2910
g82
g83
ssg71
g2904
sg64
(lp2911
g418
asbag57
(g78
g59
NtRp2912
(dp2913
g62
(dp2914
g89
g90
ssg71
g2904
sg64
(lp2915
S':'
asbag57
(g78
g59
NtRp2916
(dp2917
g62
(dp2918
sg71
g2904
sg64
(lp2919
g57
(g58
g59
NtRp2920
(dp2921
g62
(dp2922
g70
I3
ssg71
g2916
sg64
(lp2923
S''
asbasbasbasbasbasbasbasbasbasbasbag57
(g73
g59
NtRp2924
(dp2925
g62
(dp2926
sg71
g2690
sg64
(lp2927
g57
(g78
g59
NtRp2928
(dp2929
g62
(dp2930
g82
g83
ssg71
g2924
sg64
(lp2931
S'delimiters'
p2932
asbag57
(g78
g59
NtRp2933
(dp2934
g62
(dp2935
g89
g90
ssg71
g2924
sg64
(lp2936
S':'
asbag57
(g78
g59
NtRp2937
(dp2938
g62
(dp2939
sg71
g2924
sg64
(lp2940
g57
(g58
g59
NtRp2941
(dp2942
g62
(dp2943
g70
I5
ssg71
g2937
sg64
(lp2944
g57
(g66
g59
NtRp2945
(dp2946
g62
(dp2947
g70
I4
ssg71
Nsg64
(lp2948
g57
(g73
g59
NtRp2949
(dp2950
g62
(dp2951
sg71
g2945
sg64
(lp2952
g57
(g78
g59
NtRp2953
(dp2954
g62
(dp2955
sg71
g2949
sg64
(lp2956
g57
(g58
g59
NtRp2957
(dp2958
g62
(dp2959
g70
I4
ssg71
g2953
sg64
(lp2960
S'{{'
p2961
asbasbasbag57
(g73
g59
NtRp2962
(dp2963
g62
(dp2964
sg71
g2945
sg64
(lp2965
g57
(g78
g59
NtRp2966
(dp2967
g62
(dp2968
sg71
g2962
sg64
(lp2969
g57
(g58
g59
NtRp2970
(dp2971
g62
(dp2972
g70
I4
ssg71
g2966
sg64
(lp2973
S'}}'
p2974
asbasbasbasbasbasbasbag57
(g73
g59
NtRp2975
(dp2976
g62
(dp2977
sg71
g2690
sg64
(lp2978
g57
(g78
g59
NtRp2979
(dp2980
g62
(dp2981
g82
g83
ssg71
g2975
sg64
(lp2982
S'files'
p2983
asbag57
(g78
g59
NtRp2984
(dp2985
g62
(dp2986
g89
g90
ssg71
g2975
sg64
(lp2987
S':'
asbag57
(g78
g59
NtRp2988
(dp2989
g62
(dp2990
sg71
g2975
sg64
(lp2991
g57
(g58
g59
NtRp2992
(dp2993
g62
(dp2994
g70
I5
ssg71
g2988
sg64
(lp2995
g57
(g66
g59
NtRp2996
(dp2997
g62
(dp2998
g70
I4
ssg71
Nsg64
(lp2999
sbasbasbasbag57
(g73
g59
NtRp3000
(dp3001
g62
(dp3002
sg71
g2690
sg64
(lp3003
g57
(g78
g59
NtRp3004
(dp3005
g62
(dp3006
g82
g83
ssg71
g3000
sg64
(lp3007
S'flash'
p3008
asbag57
(g78
g59
NtRp3009
(dp3010
g62
(dp3011
g89
g90
ssg71
g3000
sg64
(lp3012
S':'
asbag57
(g78
g59
NtRp3013
(dp3014
g62
(dp3015
sg71
g3000
sg64
(lp3016
g57
(g58
g59
NtRp3017
(dp3018
g62
(dp3019
g70
I5
ssg71
g3013
sg64
(lp3020
S''
asbasbasbag57
(g73
g59
NtRp3021
(dp3022
g62
(dp3023
sg71
g2690
sg64
(lp3024
g57
(g78
g59
NtRp3025
(dp3026
g62
(dp3027
g82
g83
ssg71
g3021
sg64
(lp3028
S'generic_patterns'
p3029
asbag57
(g78
g59
NtRp3030
(dp3031
g62
(dp3032
g89
g90
ssg71
g3021
sg64
(lp3033
S':'
asbag57
(g78
g59
NtRp3034
(dp3035
g62
(dp3036
sg71
g3021
sg64
(lp3037
g57
(g58
g59
NtRp3038
(dp3039
g62
(dp3040
g70
I5
ssg71
g3034
sg64
(lp3041
g57
(g66
g59
NtRp3042
(dp3043
g62
(dp3044
g70
I4
ssg71
Nsg64
(lp3045
g57
(g73
g59
NtRp3046
(dp3047
g62
(dp3048
sg71
g3042
sg64
(lp3049
g57
(g78
g59
NtRp3050
(dp3051
g62
(dp3052
sg71
g3046
sg64
(lp3053
g57
(g58
g59
NtRp3054
(dp3055
g62
(dp3056
g70
I4
ssg71
g3050
sg64
(lp3057
S'*'
asbasbasbasbasbasbasbag57
(g73
g59
NtRp3058
(dp3059
g62
(dp3060
sg71
g2690
sg64
(lp3061
g57
(g78
g59
NtRp3062
(dp3063
g62
(dp3064
g82
g83
ssg71
g3058
sg64
(lp3065
S'headers'
p3066
asbag57
(g78
g59
NtRp3067
(dp3068
g62
(dp3069
g89
g90
ssg71
g3058
sg64
(lp3070
S':'
asbag57
(g78
g59
NtRp3071
(dp3072
g62
(dp3073
sg71
g3058
sg64
(lp3074
g57
(g58
g59
NtRp3075
(dp3076
g62
(dp3077
g70
I5
ssg71
g3071
sg64
(lp3078
g57
(g66
g59
NtRp3079
(dp3080
g62
(dp3081
g70
I4
ssg71
Nsg64
(lp3082
g57
(g73
g59
NtRp3083
(dp3084
g62
(dp3085
sg71
g3079
sg64
(lp3086
g57
(g78
g59
NtRp3087
(dp3088
g62
(dp3089
g82
g83
ssg71
g3083
sg64
(lp3090
S'Cache-Control'
p3091
asbag57
(g78
g59
NtRp3092
(dp3093
g62
(dp3094
g89
g90
ssg71
g3083
sg64
(lp3095
S':'
asbag57
(g78
g59
NtRp3096
(dp3097
g62
(dp3098
sg71
g3083
sg64
(lp3099
g57
(g58
g59
NtRp3100
(dp3101
g62
(dp3102
g70
I4
ssg71
g3096
sg64
(lp3103
S'no-store, no-cache, must-revalidate, post-check=0, pre-check=0'
p3104
asbasbasbag57
(g73
g59
NtRp3105
(dp3106
g62
(dp3107
sg71
g3079
sg64
(lp3108
g57
(g78
g59
NtRp3109
(dp3110
g62
(dp3111
g82
g83
ssg71
g3105
sg64
(lp3112
S'Content-Type'
p3113
asbag57
(g78
g59
NtRp3114
(dp3115
g62
(dp3116
g89
g90
ssg71
g3105
sg64
(lp3117
S':'
asbag57
(g78
g59
NtRp3118
(dp3119
g62
(dp3120
sg71
g3105
sg64
(lp3121
g57
(g58
g59
NtRp3122
(dp3123
g62
(dp3124
g70
I4
ssg71
g3118
sg64
(lp3125
S'text/html; charset=utf-8'
p3126
asbasbasbag57
(g73
g59
NtRp3127
(dp3128
g62
(dp3129
sg71
g3079
sg64
(lp3130
g57
(g78
g59
NtRp3131
(dp3132
g62
(dp3133
g82
g83
ssg71
g3127
sg64
(lp3134
S'Expires'
p3135
asbag57
(g78
g59
NtRp3136
(dp3137
g62
(dp3138
g89
g90
ssg71
g3127
sg64
(lp3139
S':'
asbag57
(g78
g59
NtRp3140
(dp3141
g62
(dp3142
sg71
g3127
sg64
(lp3143
g57
(g58
g59
NtRp3144
(dp3145
g62
(dp3146
g70
I4
ssg71
g3140
sg64
(lp3147
S'Fri, 27 Jul 2012 21:02:27 GMT'
p3148
asbasbasbag57
(g73
g59
NtRp3149
(dp3150
g62
(dp3151
sg71
g3079
sg64
(lp3152
g57
(g78
g59
NtRp3153
(dp3154
g62
(dp3155
g82
g83
ssg71
g3149
sg64
(lp3156
S'Pragma'
p3157
asbag57
(g78
g59
NtRp3158
(dp3159
g62
(dp3160
g89
g90
ssg71
g3149
sg64
(lp3161
S':'
asbag57
(g78
g59
NtRp3162
(dp3163
g62
(dp3164
sg71
g3149
sg64
(lp3165
g57
(g58
g59
NtRp3166
(dp3167
g62
(dp3168
g70
I4
ssg71
g3162
sg64
(lp3169
S'no-cache'
p3170
asbasbasbag57
(g73
g59
NtRp3171
(dp3172
g62
(dp3173
sg71
g3079
sg64
(lp3174
g57
(g78
g59
NtRp3175
(dp3176
g62
(dp3177
g82
g83
ssg71
g3171
sg64
(lp3178
S'X-Powered-By'
p3179
asbag57
(g78
g59
NtRp3180
(dp3181
g62
(dp3182
g89
g90
ssg71
g3171
sg64
(lp3183
S':'
asbag57
(g78
g59
NtRp3184
(dp3185
g62
(dp3186
sg71
g3171
sg64
(lp3187
g57
(g58
g59
NtRp3188
(dp3189
g62
(dp3190
g70
I4
ssg71
g3184
sg64
(lp3191
S'web2py'
p3192
asbasbasbasbasbasbasbag57
(g73
g59
NtRp3193
(dp3194
g62
(dp3195
sg71
g2690
sg64
(lp3196
g57
(g78
g59
NtRp3197
(dp3198
g62
(dp3199
g82
g83
ssg71
g3193
sg64
(lp3200
S'menu'
p3201
asbag57
(g78
g59
NtRp3202
(dp3203
g62
(dp3204
g89
g90
ssg71
g3193
sg64
(lp3205
S':'
asbag57
(g78
g59
NtRp3206
(dp3207
g62
(dp3208
sg71
g3193
sg64
(lp3209
g57
(g58
g59
NtRp3210
(dp3211
g62
(dp3212
g70
I5
ssg71
g3206
sg64
(lp3213
g57
(g66
g59
NtRp3214
(dp3215
g62
(dp3216
g70
I4
ssg71
Nsg64
(lp3217
g57
(g73
g59
NtRp3218
(dp3219
g62
(dp3220
sg71
g3214
sg64
(lp3221
g57
(g78
g59
NtRp3222
(dp3223
g62
(dp3224
sg71
g3218
sg64
(lp3225
g57
(g58
g59
NtRp3226
(dp3227
g62
(dp3228
g70
I4
ssg71
g3222
sg64
(lp3229
g57
(g66
g59
NtRp3230
(dp3231
g62
(dp3232
g70
I3
ssg71
Nsg64
(lp3233
g57
(g73
g59
NtRp3234
(dp3235
g62
(dp3236
sg71
g3230
sg64
(lp3237
g57
(g78
g59
NtRp3238
(dp3239
g62
(dp3240
sg71
g3234
sg64
(lp3241
g57
(g58
g59
NtRp3242
(dp3243
g62
(dp3244
g70
I3
ssg71
g3238
sg64
(lp3245
cgluon.languages
lazyT_unpickle
p3246
(S's\x04\x00\x00\x00Home'
tRp3247
asbasbasbag57
(g73
g59
NtRp3248
(dp3249
g62
(dp3250
sg71
g3230
sg64
(lp3251
g57
(g78
g59
NtRp3252
(dp3253
g62
(dp3254
sg71
g3248
sg64
(lp3255
g57
(g58
g59
NtRp3256
(dp3257
g62
(dp3258
g70
I3
ssg71
g3252
sg64
(lp3259
g100
asbasbasbag57
(g73
g59
NtRp3260
(dp3261
g62
(dp3262
sg71
g3230
sg64
(lp3263
g57
(g78
g59
NtRp3264
(dp3265
g62
(dp3266
sg71
g3260
sg64
(lp3267
g57
(g58
g59
NtRp3268
(dp3269
g62
(dp3270
g70
I3
ssg71
g3264
sg64
(lp3271
S'/Inventory/default/index'
p3272
asbasbasbag57
(g73
g59
NtRp3273
(dp3274
g62
(dp3275
sg71
g3230
sg64
(lp3276
g57
(g78
g59
NtRp3277
(dp3278
g62
(dp3279
sg71
g3273
sg64
(lp3280
g57
(g58
g59
NtRp3281
(dp3282
g62
(dp3283
g70
I3
ssg71
g3277
sg64
(lp3284
g57
(g66
g59
NtRp3285
(dp3286
g62
(dp3287
g70
I2
ssg71
Nsg64
(lp3288
sbasbasbasbasbasbasbasbag57
(g73
g59
NtRp3289
(dp3290
g62
(dp3291
sg71
g3214
sg64
(lp3292
g57
(g78
g59
NtRp3293
(dp3294
g62
(dp3295
sg71
g3289
sg64
(lp3296
g57
(g58
g59
NtRp3297
(dp3298
g62
(dp3299
g70
I4
ssg71
g3293
sg64
(lp3300
g57
(g66
g59
NtRp3301
(dp3302
g62
(dp3303
g70
I3
ssg71
Nsg64
(lp3304
g57
(g73
g59
NtRp3305
(dp3306
g62
(dp3307
sg71
g3301
sg64
(lp3308
g57
(g78
g59
NtRp3309
(dp3310
g62
(dp3311
sg71
g3305
sg64
(lp3312
g57
(g58
g59
NtRp3313
(dp3314
g62
(dp3315
g70
I3
ssg71
g3309
sg64
(lp3316
g57
(cgluon.html
SPAN
p3317
g59
NtRp3318
(dp3319
g62
(dp3320
g82
S'color:yellow'
p3321
ssg71
Nsg64
(lp3322
g3192
asbasbasbasbag57
(g73
g59
NtRp3323
(dp3324
g62
(dp3325
sg71
g3301
sg64
(lp3326
g57
(g78
g59
NtRp3327
(dp3328
g62
(dp3329
sg71
g3323
sg64
(lp3330
g57
(g58
g59
NtRp3331
(dp3332
g62
(dp3333
g70
I3
ssg71
g3327
sg64
(lp3334
g100
asbasbasbag57
(g73
g59
NtRp3335
(dp3336
g62
(dp3337
sg71
g3301
sg64
(lp3338
g57
(g78
g59
NtRp3339
(dp3340
g62
(dp3341
sg71
g3335
sg64
(lp3342
g57
(g58
g59
NtRp3343
(dp3344
g62
(dp3345
g70
I3
ssg71
g3339
sg64
(lp3346
S'None'
p3347
asbasbasbag57
(g73
g59
NtRp3348
(dp3349
g62
(dp3350
sg71
g3301
sg64
(lp3351
g57
(g78
g59
NtRp3352
(dp3353
g62
(dp3354
sg71
g3348
sg64
(lp3355
g57
(g58
g59
NtRp3356
(dp3357
g62
(dp3358
g70
I3
ssg71
g3352
sg64
(lp3359
g57
(g66
g59
NtRp3360
(dp3361
g62
(dp3362
g70
I2
ssg71
Nsg64
(lp3363
g57
(g73
g59
NtRp3364
(dp3365
g62
(dp3366
sg71
g3360
sg64
(lp3367
g57
(g78
g59
NtRp3368
(dp3369
g62
(dp3370
sg71
g3364
sg64
(lp3371
g57
(g58
g59
NtRp3372
(dp3373
g62
(dp3374
g70
I2
ssg71
g3368
sg64
(lp3375
g57
(g66
g59
NtRp3376
(dp3377
g62
(dp3378
g70
I1
ssg71
Nsg64
(lp3379
g57
(g73
g59
NtRp3380
(dp3381
g62
(dp3382
sg71
g3376
sg64
(lp3383
g57
(g78
g59
NtRp3384
(dp3385
g62
(dp3386
sg71
g3380
sg64
(lp3387
g57
(g58
g59
NtRp3388
(dp3389
g62
(dp3390
g70
I1
ssg71
g3384
sg64
(lp3391
g3246
(S's\x08\x00\x00\x00My Sites'
tRp3392
asbasbasbag57
(g73
g59
NtRp3393
(dp3394
g62
(dp3395
sg71
g3376
sg64
(lp3396
g57
(g78
g59
NtRp3397
(dp3398
g62
(dp3399
sg71
g3393
sg64
(lp3400
g57
(g58
g59
NtRp3401
(dp3402
g62
(dp3403
g70
I1
ssg71
g3397
sg64
(lp3404
I00
asbasbasbag57
(g73
g59
NtRp3405
(dp3406
g62
(dp3407
sg71
g3376
sg64
(lp3408
g57
(g78
g59
NtRp3409
(dp3410
g62
(dp3411
sg71
g3405
sg64
(lp3412
g57
(g58
g59
NtRp3413
(dp3414
g62
(dp3415
g70
I1
ssg71
g3409
sg64
(lp3416
S'/admin/default/site'
p3417
asbasbasbasbasbasbasbag57
(g73
g59
NtRp3418
(dp3419
g62
(dp3420
sg71
g3360
sg64
(lp3421
g57
(g78
g59
NtRp3422
(dp3423
g62
(dp3424
sg71
g3418
sg64
(lp3425
g57
(g58
g59
NtRp3426
(dp3427
g62
(dp3428
g70
I2
ssg71
g3422
sg64
(lp3429
g57
(g66
g59
NtRp3430
(dp3431
g62
(dp3432
g70
I1
ssg71
Nsg64
(lp3433
g57
(g73
g59
NtRp3434
(dp3435
g62
(dp3436
sg71
g3430
sg64
(lp3437
g57
(g78
g59
NtRp3438
(dp3439
g62
(dp3440
sg71
g3434
sg64
(lp3441
g57
(g58
g59
NtRp3442
(dp3443
g62
(dp3444
g70
I1
ssg71
g3438
sg64
(lp3445
g3246
(S's\x08\x00\x00\x00This App'
tRp3446
asbasbasbag57
(g73
g59
NtRp3447
(dp3448
g62
(dp3449
sg71
g3430
sg64
(lp3450
g57
(g78
g59
NtRp3451
(dp3452
g62
(dp3453
sg71
g3447
sg64
(lp3454
g57
(g58
g59
NtRp3455
(dp3456
g62
(dp3457
g70
I1
ssg71
g3451
sg64
(lp3458
I00
asbasbasbag57
(g73
g59
NtRp3459
(dp3460
g62
(dp3461
sg71
g3430
sg64
(lp3462
g57
(g78
g59
NtRp3463
(dp3464
g62
(dp3465
sg71
g3459
sg64
(lp3466
g57
(g58
g59
NtRp3467
(dp3468
g62
(dp3469
g70
I1
ssg71
g3463
sg64
(lp3470
S'/admin/default/design/Inventory'
p3471
asbasbasbag57
(g73
g59
NtRp3472
(dp3473
g62
(dp3474
sg71
g3430
sg64
(lp3475
g57
(g78
g59
NtRp3476
(dp3477
g62
(dp3478
sg71
g3472
sg64
(lp3479
g57
(g58
g59
NtRp3480
(dp3481
g62
(dp3482
g70
I1
ssg71
g3476
sg64
(lp3483
(lp3484
(g3246
(S's\n\x00\x00\x00Controller'
tRp3485
I00
S'/admin/default/edit/Inventory/controllers/qrinv.py'
tp3486
a(g3246
(S's\x04\x00\x00\x00View'
tRp3487
I00
S'/admin/default/edit/Inventory/views/qrinv/enter_inventory.html'
tp3488
a(g3246
(S's\x06\x00\x00\x00Layout'
tRp3489
I00
S'/admin/default/edit/Inventory/views/layout.html'
tp3490
a(g3246
(S's\n\x00\x00\x00Stylesheet'
tRp3491
I00
S'/admin/default/edit/Inventory/static/css/web2py.css'
tp3492
a(g3246
(S's\x08\x00\x00\x00DB Model'
tRp3493
I00
S'/admin/default/edit/Inventory/models/db.py'
tp3494
a(g3246
(S's\n\x00\x00\x00Menu Model'
tRp3495
I00
S'/admin/default/edit/Inventory/models/menu.py'
tp3496
a(g3246
(S's\x08\x00\x00\x00Database'
tRp3497
I00
S'/Inventory/appadmin/index'
tp3498
a(g3246
(S's\x06\x00\x00\x00Errors'
tRp3499
I00
S'/admin/default/errors/Inventory'
tp3500
a(g3246
(S's\x05\x00\x00\x00About'
tRp3501
I00
S'/admin/default/about/Inventory'
tp3502
aasbasbasbasbasbasbasbag57
(g73
g59
NtRp3503
(dp3504
g62
(dp3505
sg71
g3360
sg64
(lp3506
g57
(g78
g59
NtRp3507
(dp3508
g62
(dp3509
sg71
g3503
sg64
(lp3510
g57
(g58
g59
NtRp3511
(dp3512
g62
(dp3513
g70
I2
ssg71
g3507
sg64
(lp3514
g57
(g66
g59
NtRp3515
(dp3516
g62
(dp3517
g70
I1
ssg71
Nsg64
(lp3518
g57
(g73
g59
NtRp3519
(dp3520
g62
(dp3521
sg71
g3515
sg64
(lp3522
g57
(g78
g59
NtRp3523
(dp3524
g62
(dp3525
sg71
g3519
sg64
(lp3526
g57
(g58
g59
NtRp3527
(dp3528
g62
(dp3529
g70
I1
ssg71
g3523
sg64
(lp3530
S'web2py.com'
p3531
asbasbasbag57
(g73
g59
NtRp3532
(dp3533
g62
(dp3534
sg71
g3515
sg64
(lp3535
g57
(g78
g59
NtRp3536
(dp3537
g62
(dp3538
sg71
g3532
sg64
(lp3539
g57
(g58
g59
NtRp3540
(dp3541
g62
(dp3542
g70
I1
ssg71
g3536
sg64
(lp3543
I00
asbasbasbag57
(g73
g59
NtRp3544
(dp3545
g62
(dp3546
sg71
g3515
sg64
(lp3547
g57
(g78
g59
NtRp3548
(dp3549
g62
(dp3550
sg71
g3544
sg64
(lp3551
g57
(g58
g59
NtRp3552
(dp3553
g62
(dp3554
g70
I1
ssg71
g3548
sg64
(lp3555
S'http://www.web2py.com'
p3556
asbasbasbag57
(g73
g59
NtRp3557
(dp3558
g62
(dp3559
sg71
g3515
sg64
(lp3560
g57
(g78
g59
NtRp3561
(dp3562
g62
(dp3563
sg71
g3557
sg64
(lp3564
g57
(g58
g59
NtRp3565
(dp3566
g62
(dp3567
g70
I1
ssg71
g3561
sg64
(lp3568
(lp3569
(g3246
(S's\x08\x00\x00\x00Download'
tRp3570
I00
S'http://www.web2py.com/examples/default/download'
p3571
tp3572
a(g3246
(S's\x07\x00\x00\x00Support'
tRp3573
I00
S'http://www.web2py.com/examples/default/support'
p3574
tp3575
a(g3246
(S's\x04\x00\x00\x00Demo'
tRp3576
I00
S'http://web2py.com/demo_admin'
p3577
tp3578
a(g3246
(S's\x0e\x00\x00\x00Quick Examples'
tRp3579
I00
S'http://web2py.com/examples/default/examples'
p3580
tp3581
a(g3246
(S's\x03\x00\x00\x00FAQ'
tRp3582
I00
S'http://web2py.com/AlterEgo'
p3583
tp3584
a(g3246
(S's\x06\x00\x00\x00Videos'
tRp3585
I00
S'http://www.web2py.com/examples/default/videos/'
p3586
tp3587
a(g3246
(S's\x11\x00\x00\x00Free Applications'
tRp3588
I00
S'http://web2py.com/appliances'
p3589
tp3590
a(g3246
(S's\x07\x00\x00\x00Plugins'
tRp3591
I00
S'http://web2py.com/plugins'
p3592
tp3593
a(g3246
(S's\x07\x00\x00\x00Layouts'
tRp3594
I00
S'http://web2py.com/layouts'
p3595
tp3596
a(g3246
(S's\x07\x00\x00\x00Recipes'
tRp3597
I00
S'http://web2pyslices.com/'
p3598
tp3599
a(g3246
(S's\x08\x00\x00\x00Semantic'
tRp3600
I00
S'http://web2py.com/semantic'
p3601
tp3602
aasbasbasbasbasbasbasbag57
(g73
g59
NtRp3603
(dp3604
g62
(dp3605
sg71
g3360
sg64
(lp3606
g57
(g78
g59
NtRp3607
(dp3608
g62
(dp3609
sg71
g3603
sg64
(lp3610
g57
(g58
g59
NtRp3611
(dp3612
g62
(dp3613
g70
I2
ssg71
g3607
sg64
(lp3614
g57
(g66
g59
NtRp3615
(dp3616
g62
(dp3617
g70
I1
ssg71
Nsg64
(lp3618
g57
(g73
g59
NtRp3619
(dp3620
g62
(dp3621
sg71
g3615
sg64
(lp3622
g57
(g78
g59
NtRp3623
(dp3624
g62
(dp3625
sg71
g3619
sg64
(lp3626
g57
(g58
g59
NtRp3627
(dp3628
g62
(dp3629
g70
I1
ssg71
g3623
sg64
(lp3630
g3246
(S's\r\x00\x00\x00Documentation'
tRp3631
asbasbasbag57
(g73
g59
NtRp3632
(dp3633
g62
(dp3634
sg71
g3615
sg64
(lp3635
g57
(g78
g59
NtRp3636
(dp3637
g62
(dp3638
sg71
g3632
sg64
(lp3639
g57
(g58
g59
NtRp3640
(dp3641
g62
(dp3642
g70
I1
ssg71
g3636
sg64
(lp3643
I00
asbasbasbag57
(g73
g59
NtRp3644
(dp3645
g62
(dp3646
sg71
g3615
sg64
(lp3647
g57
(g78
g59
NtRp3648
(dp3649
g62
(dp3650
sg71
g3644
sg64
(lp3651
g57
(g58
g59
NtRp3652
(dp3653
g62
(dp3654
g70
I1
ssg71
g3648
sg64
(lp3655
S'http://www.web2py.com/book'
p3656
asbasbasbag57
(g73
g59
NtRp3657
(dp3658
g62
(dp3659
sg71
g3615
sg64
(lp3660
g57
(g78
g59
NtRp3661
(dp3662
g62
(dp3663
sg71
g3657
sg64
(lp3664
g57
(g58
g59
NtRp3665
(dp3666
g62
(dp3667
g70
I1
ssg71
g3661
sg64
(lp3668
(lp3669
(g3246
(S's\x07\x00\x00\x00Preface'
tRp3670
I00
S'http://www.web2py.com/book/default/chapter/00'
p3671
tp3672
a(g3246
(S's\x0c\x00\x00\x00Introduction'
tRp3673
I00
S'http://www.web2py.com/book/default/chapter/01'
p3674
tp3675
a(g3246
(S's\x06\x00\x00\x00Python'
tRp3676
I00
S'http://www.web2py.com/book/default/chapter/02'
p3677
tp3678
a(g3246
(S's\x08\x00\x00\x00Overview'
tRp3679
I00
S'http://www.web2py.com/book/default/chapter/03'
p3680
tp3681
a(g3246
(S's\x08\x00\x00\x00The Core'
tRp3682
I00
S'http://www.web2py.com/book/default/chapter/04'
p3683
tp3684
a(g3246
(S's\t\x00\x00\x00The Views'
tRp3685
I00
S'http://www.web2py.com/book/default/chapter/05'
p3686
tp3687
a(g3246
(S's\x08\x00\x00\x00Database'
tRp3688
I00
S'http://www.web2py.com/book/default/chapter/06'
p3689
tp3690
a(g3246
(S's\x14\x00\x00\x00Forms and Validators'
tRp3691
I00
S'http://www.web2py.com/book/default/chapter/07'
p3692
tp3693
a(g3246
(S's\r\x00\x00\x00Email and SMS'
tRp3694
I00
S'http://www.web2py.com/book/default/chapter/08'
p3695
tp3696
a(g3246
(S's\x0e\x00\x00\x00Access Control'
tRp3697
I00
S'http://www.web2py.com/book/default/chapter/09'
p3698
tp3699
a(g3246
(S's\x08\x00\x00\x00Services'
tRp3700
I00
S'http://www.web2py.com/book/default/chapter/10'
p3701
tp3702
a(g3246
(S's\x0c\x00\x00\x00Ajax Recipes'
tRp3703
I00
S'http://www.web2py.com/book/default/chapter/11'
p3704
tp3705
a(g3246
(S's\x16\x00\x00\x00Components and Plugins'
tRp3706
I00
S'http://www.web2py.com/book/default/chapter/12'
p3707
tp3708
a(g3246
(S's\x12\x00\x00\x00Deployment Recipes'
tRp3709
I00
S'http://www.web2py.com/book/default/chapter/13'
p3710
tp3711
a(g3246
(S's\r\x00\x00\x00Other Recipes'
tRp3712
I00
S'http://www.web2py.com/book/default/chapter/14'
p3713
tp3714
a(g3246
(S's\r\x00\x00\x00Buy this book'
tRp3715
I00
S'http://stores.lulu.com/web2py'
p3716
tp3717
aasbasbasbasbasbasbasbag57
(g73
g59
NtRp3718
(dp3719
g62
(dp3720
sg71
g3360
sg64
(lp3721
g57
(g78
g59
NtRp3722
(dp3723
g62
(dp3724
sg71
g3718
sg64
(lp3725
g57
(g58
g59
NtRp3726
(dp3727
g62
(dp3728
g70
I2
ssg71
g3722
sg64
(lp3729
g57
(g66
g59
NtRp3730
(dp3731
g62
(dp3732
g70
I1
ssg71
Nsg64
(lp3733
g57
(g73
g59
NtRp3734
(dp3735
g62
(dp3736
sg71
g3730
sg64
(lp3737
g57
(g78
g59
NtRp3738
(dp3739
g62
(dp3740
sg71
g3734
sg64
(lp3741
g57
(g58
g59
NtRp3742
(dp3743
g62
(dp3744
g70
I1
ssg71
g3738
sg64
(lp3745
g3246
(S's\t\x00\x00\x00Community'
tRp3746
asbasbasbag57
(g73
g59
NtRp3747
(dp3748
g62
(dp3749
sg71
g3730
sg64
(lp3750
g57
(g78
g59
NtRp3751
(dp3752
g62
(dp3753
sg71
g3747
sg64
(lp3754
g57
(g58
g59
NtRp3755
(dp3756
g62
(dp3757
g70
I1
ssg71
g3751
sg64
(lp3758
I00
asbasbasbag57
(g73
g59
NtRp3759
(dp3760
g62
(dp3761
sg71
g3730
sg64
(lp3762
g57
(g78
g59
NtRp3763
(dp3764
g62
(dp3765
sg71
g3759
sg64
(lp3766
g57
(g58
g59
NtRp3767
(dp3768
g62
(dp3769
g70
I1
ssg71
g3763
sg64
(lp3770
Nasbasbasbag57
(g73
g59
NtRp3771
(dp3772
g62
(dp3773
sg71
g3730
sg64
(lp3774
g57
(g78
g59
NtRp3775
(dp3776
g62
(dp3777
sg71
g3771
sg64
(lp3778
g57
(g58
g59
NtRp3779
(dp3780
g62
(dp3781
g70
I1
ssg71
g3775
sg64
(lp3782
(lp3783
(g3246
(S's\x06\x00\x00\x00Groups'
tRp3784
I00
S'http://www.web2py.com/examples/default/usergroups'
p3785
tp3786
a(g3246
(S's\x07\x00\x00\x00Twitter'
tRp3787
I00
S'http://twitter.com/web2py'
p3788
tp3789
a(g3246
(S's\t\x00\x00\x00Live Chat'
tRp3790
I00
S'http://webchat.freenode.net/?channels=web2py'
p3791
tp3792
aasbasbasbasbasbasbasbag57
(g73
g59
NtRp3793
(dp3794
g62
(dp3795
sg71
g3360
sg64
(lp3796
g57
(g78
g59
NtRp3797
(dp3798
g62
(dp3799
sg71
g3793
sg64
(lp3800
g57
(g58
g59
NtRp3801
(dp3802
g62
(dp3803
g70
I2
ssg71
g3797
sg64
(lp3804
g57
(g66
g59
NtRp3805
(dp3806
g62
(dp3807
g70
I1
ssg71
Nsg64
(lp3808
g57
(g73
g59
NtRp3809
(dp3810
g62
(dp3811
sg71
g3805
sg64
(lp3812
g57
(g78
g59
NtRp3813
(dp3814
g62
(dp3815
sg71
g3809
sg64
(lp3816
g57
(g58
g59
NtRp3817
(dp3818
g62
(dp3819
g70
I1
ssg71
g3813
sg64
(lp3820
g3246
(S's\x07\x00\x00\x00Plugins'
tRp3821
asbasbasbag57
(g73
g59
NtRp3822
(dp3823
g62
(dp3824
sg71
g3805
sg64
(lp3825
g57
(g78
g59
NtRp3826
(dp3827
g62
(dp3828
sg71
g3822
sg64
(lp3829
g57
(g58
g59
NtRp3830
(dp3831
g62
(dp3832
g70
I1
ssg71
g3826
sg64
(lp3833
I00
asbasbasbag57
(g73
g59
NtRp3834
(dp3835
g62
(dp3836
sg71
g3805
sg64
(lp3837
g57
(g78
g59
NtRp3838
(dp3839
g62
(dp3840
sg71
g3834
sg64
(lp3841
g57
(g58
g59
NtRp3842
(dp3843
g62
(dp3844
g70
I1
ssg71
g3838
sg64
(lp3845
Nasbasbasbag57
(g73
g59
NtRp3846
(dp3847
g62
(dp3848
sg71
g3805
sg64
(lp3849
g57
(g78
g59
NtRp3850
(dp3851
g62
(dp3852
sg71
g3846
sg64
(lp3853
g57
(g58
g59
NtRp3854
(dp3855
g62
(dp3856
g70
I1
ssg71
g3850
sg64
(lp3857
(lp3858
(S'plugin_wiki'
p3859
I00
S'http://web2py.com/examples/default/download'
p3860
tp3861
a(g3246
(S's\r\x00\x00\x00Other Plugins'
tRp3862
I00
g3592
tp3863
a(g3246
(S's\x0e\x00\x00\x00Layout Plugins'
tRp3864
I00
g3595
tp3865
aasbasbasbasbasbasbasbasbasbasbasbasbasbasbasbasbasbasbasbag57
(g73
g59
NtRp3866
(dp3867
g62
(dp3868
sg71
g2690
sg64
(lp3869
g57
(g78
g59
NtRp3870
(dp3871
g62
(dp3872
g82
g83
ssg71
g3866
sg64
(lp3873
S'meta'
p3874
asbag57
(g78
g59
NtRp3875
(dp3876
g62
(dp3877
g89
g90
ssg71
g3866
sg64
(lp3878
S':'
asbag57
(g78
g59
NtRp3879
(dp3880
g62
(dp3881
sg71
g3866
sg64
(lp3882
g57
(g58
g59
NtRp3883
(dp3884
g62
(dp3885
g70
I5
ssg71
g3879
sg64
(lp3886
g57
(g66
g59
NtRp3887
(dp3888
g62
(dp3889
g70
I4
ssg71
Nsg64
(lp3890
g57
(g73
g59
NtRp3891
(dp3892
g62
(dp3893
sg71
g3887
sg64
(lp3894
g57
(g78
g59
NtRp3895
(dp3896
g62
(dp3897
g82
g83
ssg71
g3891
sg64
(lp3898
S'author'
p3899
asbag57
(g78
g59
NtRp3900
(dp3901
g62
(dp3902
g89
g90
ssg71
g3891
sg64
(lp3903
S':'
asbag57
(g78
g59
NtRp3904
(dp3905
g62
(dp3906
sg71
g3891
sg64
(lp3907
g57
(g58
g59
NtRp3908
(dp3909
g62
(dp3910
g70
I4
ssg71
g3904
sg64
(lp3911
S'Your Name <you@example.com>'
p3912
asbasbasbag57
(g73
g59
NtRp3913
(dp3914
g62
(dp3915
sg71
g3887
sg64
(lp3916
g57
(g78
g59
NtRp3917
(dp3918
g62
(dp3919
g82
g83
ssg71
g3913
sg64
(lp3920
S'copyright'
p3921
asbag57
(g78
g59
NtRp3922
(dp3923
g62
(dp3924
g89
g90
ssg71
g3913
sg64
(lp3925
S':'
asbag57
(g78
g59
NtRp3926
(dp3927
g62
(dp3928
sg71
g3913
sg64
(lp3929
g57
(g58
g59
NtRp3930
(dp3931
g62
(dp3932
g70
I4
ssg71
g3926
sg64
(lp3933
S'Copyright 2011'
p3934
asbasbasbag57
(g73
g59
NtRp3935
(dp3936
g62
(dp3937
sg71
g3887
sg64
(lp3938
g57
(g78
g59
NtRp3939
(dp3940
g62
(dp3941
g82
g83
ssg71
g3935
sg64
(lp3942
S'description'
p3943
asbag57
(g78
g59
NtRp3944
(dp3945
g62
(dp3946
g89
g90
ssg71
g3935
sg64
(lp3947
S':'
asbag57
(g78
g59
NtRp3948
(dp3949
g62
(dp3950
sg71
g3935
sg64
(lp3951
g57
(g58
g59
NtRp3952
(dp3953
g62
(dp3954
g70
I4
ssg71
g3948
sg64
(lp3955
S'a cool new app'
p3956
asbasbasbag57
(g73
g59
NtRp3957
(dp3958
g62
(dp3959
sg71
g3887
sg64
(lp3960
g57
(g78
g59
NtRp3961
(dp3962
g62
(dp3963
g82
g83
ssg71
g3957
sg64
(lp3964
S'generator'
p3965
asbag57
(g78
g59
NtRp3966
(dp3967
g62
(dp3968
g89
g90
ssg71
g3957
sg64
(lp3969
S':'
asbag57
(g78
g59
NtRp3970
(dp3971
g62
(dp3972
sg71
g3957
sg64
(lp3973
g57
(g58
g59
NtRp3974
(dp3975
g62
(dp3976
g70
I4
ssg71
g3970
sg64
(lp3977
S'Web2py Web Framework'
p3978
asbasbasbag57
(g73
g59
NtRp3979
(dp3980
g62
(dp3981
sg71
g3887
sg64
(lp3982
g57
(g78
g59
NtRp3983
(dp3984
g62
(dp3985
g82
g83
ssg71
g3979
sg64
(lp3986
S'keywords'
p3987
asbag57
(g78
g59
NtRp3988
(dp3989
g62
(dp3990
g89
g90
ssg71
g3979
sg64
(lp3991
S':'
asbag57
(g78
g59
NtRp3992
(dp3993
g62
(dp3994
sg71
g3979
sg64
(lp3995
g57
(g58
g59
NtRp3996
(dp3997
g62
(dp3998
g70
I4
ssg71
g3992
sg64
(lp3999
S'web2py, python, framework'
p4000
asbasbasbasbasbasbasbag57
(g73
g59
NtRp4001
(dp4002
g62
(dp4003
sg71
g2690
sg64
(lp4004
g57
(g78
g59
NtRp4005
(dp4006
g62
(dp4007
g82
g83
ssg71
g4001
sg64
(lp4008
S'postprocessing'
p4009
asbag57
(g78
g59
NtRp4010
(dp4011
g62
(dp4012
g89
g90
ssg71
g4001
sg64
(lp4013
S':'
asbag57
(g78
g59
NtRp4014
(dp4015
g62
(dp4016
sg71
g4001
sg64
(lp4017
g57
(g58
g59
NtRp4018
(dp4019
g62
(dp4020
g70
I5
ssg71
g4014
sg64
(lp4021
g57
(g66
g59
NtRp4022
(dp4023
g62
(dp4024
g70
I4
ssg71
Nsg64
(lp4025
sbasbasbasbag57
(g73
g59
NtRp4026
(dp4027
g62
(dp4028
sg71
g2690
sg64
(lp4029
g57
(g78
g59
NtRp4030
(dp4031
g62
(dp4032
g82
g83
ssg71
g4026
sg64
(lp4033
S'session_filename'
p4034
asbag57
(g78
g59
NtRp4035
(dp4036
g62
(dp4037
g89
g90
ssg71
g4026
sg64
(lp4038
S':'
asbag57
(g78
g59
NtRp4039
(dp4040
g62
(dp4041
sg71
g4026
sg64
(lp4042
g57
(g58
g59
NtRp4043
(dp4044
g62
(dp4045
g70
I5
ssg71
g4039
sg64
(lp4046
S'/home/jpr/Source/web2py/applications/Inventory/sessions/127.0.0.1-c5f694a2-a67d-49df-8e02-25d7496a8bf8'
p4047
asbasbasbag57
(g73
g59
NtRp4048
(dp4049
g62
(dp4050
sg71
g2690
sg64
(lp4051
g57
(g78
g59
NtRp4052
(dp4053
g62
(dp4054
g82
g83
ssg71
g4048
sg64
(lp4055
S'session_id'
p4056
asbag57
(g78
g59
NtRp4057
(dp4058
g62
(dp4059
g89
g90
ssg71
g4048
sg64
(lp4060
S':'
asbag57
(g78
g59
NtRp4061
(dp4062
g62
(dp4063
sg71
g4048
sg64
(lp4064
g57
(g58
g59
NtRp4065
(dp4066
g62
(dp4067
g70
I5
ssg71
g4061
sg64
(lp4068
S'127.0.0.1-c5f694a2-a67d-49df-8e02-25d7496a8bf8'
p4069
asbasbasbag57
(g73
g59
NtRp4070
(dp4071
g62
(dp4072
sg71
g2690
sg64
(lp4073
g57
(g78
g59
NtRp4074
(dp4075
g62
(dp4076
g82
g83
ssg71
g4070
sg64
(lp4077
S'session_id_name'
p4078
asbag57
(g78
g59
NtRp4079
(dp4080
g62
(dp4081
g89
g90
ssg71
g4070
sg64
(lp4082
S':'
asbag57
(g78
g59
NtRp4083
(dp4084
g62
(dp4085
sg71
g4070
sg64
(lp4086
g57
(g58
g59
NtRp4087
(dp4088
g62
(dp4089
g70
I5
ssg71
g4083
sg64
(lp4090
g2747
asbasbasbag57
(g73
g59
NtRp4091
(dp4092
g62
(dp4093
sg71
g2690
sg64
(lp4094
g57
(g78
g59
NtRp4095
(dp4096
g62
(dp4097
g82
g83
ssg71
g4091
sg64
(lp4098
S'session_new'
p4099
asbag57
(g78
g59
NtRp4100
(dp4101
g62
(dp4102
g89
g90
ssg71
g4091
sg64
(lp4103
S':'
asbag57
(g78
g59
NtRp4104
(dp4105
g62
(dp4106
sg71
g4091
sg64
(lp4107
g57
(g58
g59
NtRp4108
(dp4109
g62
(dp4110
g70
I5
ssg71
g4104
sg64
(lp4111
g1286
asbasbasbag57
(g73
g59
NtRp4112
(dp4113
g62
(dp4114
sg71
g2690
sg64
(lp4115
g57
(g78
g59
NtRp4116
(dp4117
g62
(dp4118
g82
g83
ssg71
g4112
sg64
(lp4119
S'status'
p4120
asbag57
(g78
g59
NtRp4121
(dp4122
g62
(dp4123
g89
g90
ssg71
g4112
sg64
(lp4124
S':'
asbag57
(g78
g59
NtRp4125
(dp4126
g62
(dp4127
sg71
g4112
sg64
(lp4128
g57
(g58
g59
NtRp4129
(dp4130
g62
(dp4131
g70
I5
ssg71
g4125
sg64
(lp4132
S'200'
p4133
asbasbasbag57
(g73
g59
NtRp4134
(dp4135
g62
(dp4136
sg71
g2690
sg64
(lp4137
g57
(g78
g59
NtRp4138
(dp4139
g62
(dp4140
g82
g83
ssg71
g4134
sg64
(lp4141
S'subtitle'
p4142
asbag57
(g78
g59
NtRp4143
(dp4144
g62
(dp4145
g89
g90
ssg71
g4134
sg64
(lp4146
S':'
asbag57
(g78
g59
NtRp4147
(dp4148
g62
(dp4149
sg71
g4134
sg64
(lp4150
g57
(g58
g59
NtRp4151
(dp4152
g62
(dp4153
g70
I5
ssg71
g4147
sg64
(lp4154
g3246
(S's\r\x00\x00\x00customize me!'
tRp4155
asbasbasbag57
(g73
g59
NtRp4156
(dp4157
g62
(dp4158
sg71
g2690
sg64
(lp4159
g57
(g78
g59
NtRp4160
(dp4161
g62
(dp4162
g82
g83
ssg71
g4156
sg64
(lp4163
S'title'
p4164
asbag57
(g78
g59
NtRp4165
(dp4166
g62
(dp4167
g89
g90
ssg71
g4156
sg64
(lp4168
S':'
asbag57
(g78
g59
NtRp4169
(dp4170
g62
(dp4171
sg71
g4156
sg64
(lp4172
g57
(g58
g59
NtRp4173
(dp4174
g62
(dp4175
g70
I5
ssg71
g4169
sg64
(lp4176
S'Inventory'
p4177
asbasbasbag57
(g73
g59
NtRp4178
(dp4179
g62
(dp4180
sg71
g2690
sg64
(lp4181
g57
(g78
g59
NtRp4182
(dp4183
g62
(dp4184
g82
g83
ssg71
g4178
sg64
(lp4185
g1950
asbag57
(g78
g59
NtRp4186
(dp4187
g62
(dp4188
g89
g90
ssg71
g4178
sg64
(lp4189
S':'
asbag57
(g78
g59
NtRp4190
(dp4191
g62
(dp4192
sg71
g4178
sg64
(lp4193
g57
(g58
g59
NtRp4194
(dp4195
g62
(dp4196
g70
I5
ssg71
g4190
sg64
(lp4197
g1963
asbasbasbag57
(g73
g59
NtRp4198
(dp4199
g62
(dp4200
sg71
g2690
sg64
(lp4201
g57
(g78
g59
NtRp4202
(dp4203
g62
(dp4204
g82
g83
ssg71
g4198
sg64
(lp4205
S'view'
p4206
asbag57
(g78
g59
NtRp4207
(dp4208
g62
(dp4209
g89
g90
ssg71
g4198
sg64
(lp4210
S':'
asbag57
(g78
g59
NtRp4211
(dp4212
g62
(dp4213
sg71
g4198
sg64
(lp4214
g57
(g58
g59
NtRp4215
(dp4216
g62
(dp4217
g70
I5
ssg71
g4211
sg64
(lp4218
S'qrinv/enter_inventory.html'
p4219
asbasbasbasbasbsS'locals'
p4220
(dp4221
S'fromlist'
p4222
S"('barcode',)"
p4223
sS'name'
p4224
S"'elaphe'"
p4225
sg70
S'-1'
p4226
sS'self'
p4227
S'<gluon.custom_import._Web2pyImporter object>'
p4228
sS'globals'
p4229
S"{'A': <class 'gluon.html.A'>, 'Auth': <class 'gluon.tools.Auth'>, 'B': <class 'gluon.html.B'>, 'BEAUTIFY': <class 'gluon.html.BEAUTIFY'>, 'BODY': <class 'gluon.html.BODY'>, 'BR': <class 'gluon.html.BR'>, 'BUTTON': <class 'gluon.html.BUTTON'>, 'CAT': <class 'gluon.html.CAT'>, 'CENTER': <class 'gluon.html.CENTER'>, 'CLEANUP': <class 'gluon.validators.CLEANUP'>, ...}"
p4230
sg4220
S"{'A': <class 'gluon.html.A'>, 'Auth': <class 'gluon.tools.Auth'>, 'B': <class 'gluon.html.B'>, 'BEAUTIFY': <class 'gluon.html.BEAUTIFY'>, 'BODY': <class 'gluon.html.BODY'>, 'BR': <class 'gluon.html.BR'>, 'BUTTON': <class 'gluon.html.BUTTON'>, 'CAT': <class 'gluon.html.CAT'>, 'CENTER': <class 'gluon.html.CENTER'>, 'CLEANUP': <class 'gluon.validators.CLEANUP'>, ...}"
p4231
sssS'traceback'
p4232
S'Traceback (most recent call last):\n  File "/home/jpr/Source/web2py/gluon/restricted.py", line 205, in restricted\n    exec ccode in environment\n  File "/home/jpr/Source/web2py/applications/Inventory/controllers/qrinv.py", line 5, in <module>\n    from elaphe import barcode\n  File "/home/jpr/Source/web2py/gluon/custom_import.py", line 293, in __call__\n    fromlist, level)\n  File "/home/jpr/Source/web2py/gluon/custom_import.py", line 78, in __call__\n    level)\nImportError: No module named elaphe\n'
p4233
s.